(dp1
S'100100100001'
p2
I1
sS'100100100000'
p3
I0
sS'110110000000'
p4
I0
sS'110110000001'
p5
I1
sS'000100011001'
p6
I1
sS'000100011000'
p7
I0
sS'111010001001'
p8
I1
sS'111010001000'
p9
I0
sS'111101100001'
p10
I1
sS'000001101001'
p11
I1
sS'000001101000'
p12
I0
sS'110111111111'
p13
I0
sS'111011010011'
p14
I0
sS'111111011011'
p15
I1
sS'010101110101'
p16
I1
sS'101010010110'
p17
I1
sS'010100101011'
p18
I0
sS'110111000111'
p19
I1
sS'110111000110'
p20
I0
sS'010011000010'
p21
I0
sS'000010011000'
p22
I1
sS'110000010000'
p23
I1
sS'100010000000'
p24
I0
sS'100010000001'
p25
I1
sS'010011100110'
p26
I0
sS'010001101010'
p27
I1
sS'101100001110'
p28
I1
sS'100100010110'
p29
I0
sS'001001001100'
p30
I0
sS'001001001101'
p31
I0
sS'001011001101'
p32
I0
sS'001011001100'
p33
I0
sS'111011001001'
p34
I1
sS'101010100000'
p35
I0
sS'101010100001'
p36
I1
sS'100110100000'
p37
I1
sS'100110100001'
p38
I0
sS'101101100111'
p39
I0
sS'101101100110'
p40
I1
sS'100010011011'
p41
I0
sS'100010011010'
p42
I1
sS'011110101101'
p43
I0
sS'001101111000'
p44
I0
sS'001101111001'
p45
I1
sS'011101100100'
p46
I0
sS'011101100101'
p47
I1
sS'001010000011'
p48
I0
sS'001010000010'
p49
I0
sS'110010110111'
p50
I0
sS'110010110110'
p51
I1
sS'101000111000'
p52
I1
sS'001010001010'
p53
I0
sS'001010001011'
p54
I1
sS'001010010001'
p55
I0
sS'001010010000'
p56
I1
sS'111101000010'
p57
I0
sS'111010010001'
p58
I0
sS'111110101010'
p59
I0
sS'001110011111'
p60
I0
sS'100101100110'
p61
I1
sS'101011101100'
p62
I0
sS'000110010111'
p63
I1
sS'000110010110'
p64
I0
sS'001110011110'
p65
I1
sS'111111011010'
p66
I0
sS'001000010110'
p67
I0
sS'001000010111'
p68
I1
sS'100100111010'
p69
I1
sS'100100111011'
p70
I0
sS'010000001101'
p71
I1
sS'010000001100'
p72
I1
sS'101010010111'
p73
I0
sS'000001110100'
p74
I0
sS'000001110101'
p75
I1
sS'001101101100'
p76
I1
sS'001101101101'
p77
I1
sS'000010011001'
p78
I0
sS'100101111101'
p79
I1
sS'100101111100'
p80
I0
sS'100111010010'
p81
I0
sS'010011000011'
p82
I0
sS'100011111101'
p83
I0
sS'100011111100'
p84
I0
sS'001000001101'
p85
I0
sS'001000001100'
p86
I0
sS'101011000101'
p87
I0
sS'101011000100'
p88
I0
sS'111100111011'
p89
I1
sS'101101011110'
p90
I0
sS'011110101100'
p91
I0
sS'110111011111'
p92
I0
sS'011011001010'
p93
I0
sS'110110011011'
p94
I0
sS'110110011010'
p95
I1
sS'011011001011'
p96
I1
sS'101010001101'
p97
I0
sS'101010001100'
p98
I0
sS'110100101100'
p99
I0
sS'110100101101'
p100
I0
sS'001111011000'
p101
I1
sS'101110110010'
p102
I1
sS'001101001011'
p103
I0
sS'001101001010'
p104
I1
sS'100110010101'
p105
I0
sS'100110010100'
p106
I1
sS'110101111010'
p107
I1
sS'110101111011'
p108
I0
sS'101010011111'
p109
I1
sS'101101111110'
p110
I1
sS'110101100001'
p111
I1
sS'110101100000'
p112
I0
sS'101100100101'
p113
I0
sS'101100100100'
p114
I1
sS'001101100000'
p115
I0
sS'001101100001'
p116
I1
sS'110100110111'
p117
I1
sS'110100110110'
p118
I0
sS'011110110110'
p119
I0
sS'011110110111'
p120
I1
sS'111110010101'
p121
I1
sS'010011100111'
p122
I1
sS'001100101110'
p123
I0
sS'001100101111'
p124
I1
sS'011101111100'
p125
I0
sS'110110100111'
p126
I1
sS'000001001110'
p127
I0
sS'111000011110'
p128
I0
sS'101011111101'
p129
I0
sS'000100000100'
p130
I0
sS'000100000101'
p131
I1
sS'000001001111'
p132
I1
sS'001101110010'
p133
I0
sS'001101110011'
p134
I1
sS'111111110101'
p135
I0
sS'111111110100'
p136
I0
sS'110001011100'
p137
I0
sS'011101001001'
p138
I1
sS'011101001000'
p139
I0
sS'001110000010'
p140
I1
sS'001110000011'
p141
I1
sS'111110010100'
p142
I0
sS'100001011101'
p143
I0
sS'100001011100'
p144
I0
sS'101111100001'
p145
I1
sS'111101101010'
p146
I0
sS'000000101011'
p147
I0
sS'000000101010'
p148
I0
sS'000000100010'
p149
I0
sS'010100010101'
p150
I1
sS'001111101000'
p151
I0
sS'001111101001'
p152
I1
sS'010111111000'
p153
I0
sS'111001100100'
p154
I0
sS'111001100101'
p155
I0
sS'001110110100'
p156
I0
sS'001110110101'
p157
I1
sS'100011100101'
p158
I0
sS'100011100100'
p159
I0
sS'100010110101'
p160
I1
sS'011010011000'
p161
I1
sS'001011101100'
p162
I0
sS'001111101111'
p163
I1
sS'110100011001'
p164
I0
sS'110100011000'
p165
I1
sS'101001011010'
p166
I0
sS'101000101100'
p167
I0
sS'111011110111'
p168
I1
sS'111011110110'
p169
I0
sS'001111000000'
p170
I0
sS'001111000001'
p171
I1
sS'001011101111'
p172
I0
sS'001011101110'
p173
I0
sS'101101110010'
p174
I1
sS'001011101101'
p175
I0
sS'100011000111'
p176
I1
sS'101001111001'
p177
I1
sS'100101110001'
p178
I1
sS'110010011001'
p179
I0
sS'011010100100'
p180
I0
sS'101001101101'
p181
I0
sS'111111101000'
p182
I0
sS'111111101001'
p183
I1
sS'110010000010'
p184
I0
sS'110010000011'
p185
I0
sS'111110011001'
p186
I0
sS'111110011000'
p187
I1
sS'101110111111'
p188
I0
sS'101110111110'
p189
I1
sS'011100101100'
p190
I1
sS'011100101101'
p191
I1
sS'110001010110'
p192
I0
sS'110001010111'
p193
I1
sS'111101110100'
p194
I0
sS'111101110101'
p195
I1
sS'110111111001'
p196
I1
sS'000111101010'
p197
I0
sS'000111110101'
p198
I1
sS'000111101011'
p199
I1
sS'011111011100'
p200
I0
sS'011111011101'
p201
I0
sS'001000100000'
p202
I0
sS'001000100001'
p203
I1
sS'101110101010'
p204
I1
sS'010101001110'
p205
I0
sS'010101001111'
p206
I1
sS'010000111011'
p207
I0
sS'010000111010'
p208
I1
sS'100010101000'
p209
I0
sS'011010000101'
p210
I0
sS'100001000101'
p211
I0
sS'100001000100'
p212
I0
sS'000000110011'
p213
I0
sS'000000110010'
p214
I1
sS'010001100010'
p215
I0
sS'010001100011'
p216
I1
sS'010011111101'
p217
I0
sS'110111110111'
p218
I1
sS'110111110110'
p219
I0
sS'001010110000'
p220
I0
sS'111010010000'
p221
I1
sS'001111110000'
p222
I0
sS'001111110001'
p223
I1
sS'111001111100'
p224
I0
sS'111001111101'
p225
I0
sS'111011011001'
p226
I1
sS'111011011000'
p227
I0
sS'101100010110'
p228
I0
sS'101100010111'
p229
I1
sS'001011010101'
p230
I0
sS'001011010100'
p231
I0
sS'111100000111'
p232
I1
sS'111111110111'
p233
I1
sS'100111100100'
p234
I0
sS'100111100101'
p235
I0
sS'111111010001'
p236
I1
sS'011011111011'
p237
I1
sS'000100110010'
p238
I0
sS'111111010000'
p239
I0
sS'110011101100'
p240
I0
sS'101010111010'
p241
I1
sS'110000100101'
p242
I1
sS'111011101111'
p243
I0
sS'111011101110'
p244
I0
sS'100110110010'
p245
I1
sS'001111100100'
p246
I0
sS'011000011110'
p247
I0
sS'011000011111'
p248
I1
sS'000011110101'
p249
I0
sS'000011110100'
p250
I0
sS'001111100101'
p251
I1
sS'110000000110'
p252
I0
sS'110000000111'
p253
I1
sS'100011001110'
p254
I0
sS'100011001111'
p255
I0
sS'011101010100'
p256
I0
sS'011101010101'
p257
I1
sS'101001000001'
p258
I1
sS'101001000000'
p259
I0
sS'011111101010'
p260
I0
sS'000110001111'
p261
I1
sS'000110001110'
p262
I1
sS'110101010111'
p263
I1
sS'110101010110'
p264
I0
sS'011111101011'
p265
I1
sS'010000010101'
p266
I0
sS'010000010100'
p267
I1
sS'011110000000'
p268
I0
sS'011110000001'
p269
I1
sS'100000110001'
p270
I1
sS'100000110000'
p271
I0
sS'001101101110'
p272
I1
sS'111001001010'
p273
I0
sS'111001001011'
p274
I1
sS'001100111101'
p275
I1
sS'110000011101'
p276
I1
sS'110000011100'
p277
I0
sS'000001000111'
p278
I0
sS'000001000110'
p279
I1
sS'111001010001'
p280
I1
sS'010100110010'
p281
I1
sS'111111000011'
p282
I0
sS'111111000010'
p283
I0
sS'101111011001'
p284
I0
sS'010111011100'
p285
I0
sS'101001111110'
p286
I0
sS'010100111010'
p287
I0
sS'101111011000'
p288
I1
sS'010011011010'
p289
I0
sS'011100110110'
p290
I1
sS'010000100011'
p291
I0
sS'010000100010'
p292
I1
sS'000111010111'
p293
I0
sS'010001110011'
p294
I0
sS'010001110010'
p295
I1
sS'010101010110'
p296
I0
sS'010101010111'
p297
I1
sS'000011111100'
p298
I0
sS'101100111011'
p299
I0
sS'000011111101'
p300
I0
sS'110011111010'
p301
I0
sS'110110000011'
p302
I0
sS'110110000010'
p303
I0
sS'010011111100'
p304
I0
sS'101001111111'
p305
I1
sS'111000110110'
p306
I0
sS'110110001010'
p307
I0
sS'110110001011'
p308
I1
sS'100111010111'
p309
I0
sS'101111000100'
p310
I0
sS'101111000101'
p311
I0
sS'010110100011'
p312
I0
sS'101010010101'
p313
I1
sS'101010010100'
p314
I0
sS'111010111111'
p315
I1
sS'010011000001'
p316
I1
sS'010011000000'
p317
I0
sS'100010000011'
p318
I0
sS'100010000010'
p319
I0
sS'010011100101'
p320
I0
sS'010011100100'
p321
I0
sS'100110111011'
p322
I1
sS'000011101000'
p323
I0
sS'000011101001'
p324
I1
sS'101100001101'
p325
I1
sS'101100001100'
p326
I1
sS'111100110101'
p327
I0
sS'010110111110'
p328
I0
sS'010110111111'
p329
I1
sS'001001001111'
p330
I0
sS'001001001110'
p331
I0
sS'111001111111'
p332
I1
sS'111110101011'
p333
I1
sS'100110100011'
p334
I1
sS'100110100010'
p335
I1
sS'111110000100'
p336
I0
sS'111110000101'
p337
I0
sS'101010100011'
p338
I0
sS'101010100010'
p339
I0
sS'111001111110'
p340
I0
sS'010000001000'
p341
I1
sS'010000001001'
p342
I0
sS'100100100100'
p343
I1
sS'100100100101'
p344
I0
sS'011000111101'
p345
I1
sS'001101111011'
p346
I0
sS'001101111010'
p347
I1
sS'000100011100'
p348
I1
sS'000100011101'
p349
I0
sS'111010001100'
p350
I0
sS'111010001101'
p351
I0
sS'000001101100'
p352
I0
sS'000001101101'
p353
I0
sS'111010100010'
p354
I0
sS'111010100011'
p355
I0
sS'111101011010'
p356
I0
sS'111101011011'
p357
I1
sS'010010101000'
p358
I0
sS'001010001001'
p359
I1
sS'001010001000'
p360
I0
sS'000010011100'
p361
I0
sS'111101000000'
p362
I0
sS'000001000011'
p363
I1
sS'100101100101'
p364
I1
sS'100101100100'
p365
I0
sS'111110101001'
p366
I1
sS'111110101000'
p367
I0
sS'111000001110'
p368
I0
sS'111000001111'
p369
I0
sS'001000010101'
p370
I0
sS'001000010100'
p371
I0
sS'001011001000'
p372
I0
sS'100100111000'
p373
I0
sS'001001110110'
p374
I0
sS'001001110111'
p375
I1
sS'011100111011'
p376
I0
sS'101010001000'
p377
I0
sS'101010001001'
p378
I1
sS'100110001000'
p379
I1
sS'100110001001'
p380
I0
sS'100111010001'
p381
I0
sS'100111010000'
p382
I1
sS'010011111000'
p383
I0
sS'010011111001'
p384
I1
sS'000111011011'
p385
I0
sS'101111011100'
p386
I0
sS'101111011101'
p387
I1
sS'101000001100'
p388
I0
sS'101000001101'
p389
I0
sS'110101101111'
p390
I0
sS'111011100000'
p391
I0
sS'001010010100'
p392
I0
sS'001010010101'
p393
I1
sS'111011100001'
p394
I1
sS'111000101110'
p395
I0
sS'110100101111'
p396
I1
sS'110100101110'
p397
I0
sS'111100011101'
p398
I1
sS'111100011100'
p399
I0
sS'001111011011'
p400
I0
sS'001111011010'
p401
I1
sS'111111110000'
p402
I0
sS'111111110001'
p403
I1
sS'101100110100'
p404
I0
sS'001111010010'
p405
I0
sS'001111010011'
p406
I1
sS'101100110101'
p407
I1
sS'100111011100'
p408
I0
sS'100101111000'
p409
I1
sS'111101000011'
p410
I0
sS'111110010110'
p411
I1
sS'100011111000'
p412
I0
sS'100011111001'
p413
I1
sS'001000001000'
p414
I0
sS'001000001001'
p415
I1
sS'001101100011'
p416
I0
sS'001101100010'
p417
I1
sS'011101111111'
p418
I0
sS'011101111110'
p419
I1
sS'011110110101'
p420
I0
sS'011110110100'
p421
I1
sS'001100101101'
p422
I0
sS'001100101100'
p423
I0
sS'001101110001'
p424
I0
sS'001101110000'
p425
I1
sS'100100000000'
p426
I1
sS'100100000001'
p427
I0
sS'111110010111'
p428
I0
sS'000001110111'
p429
I0
sS'000001110110'
p430
I1
sS'001110000001'
p431
I0
sS'001110000000'
p432
I1
sS'110100000100'
p433
I1
sS'110100000101'
p434
I0
sS'011011011111'
p435
I0
sS'110111101111'
p436
I0
sS'110111101110'
p437
I0
sS'100110010000'
p438
I0
sS'100110010001'
p439
I1
sS'000101110110'
p440
I0
sS'000101110111'
p441
I1
sS'000000100001'
p442
I0
sS'010100010110'
p443
I1
sS'001111101011'
p444
I0
sS'001111101010'
p445
I1
sS'111001100111'
p446
I1
sS'111001100110'
p447
I0
sS'100000010000'
p448
I1
sS'100000010001'
p449
I0
sS'110101100100'
p450
I0
sS'110101100101'
p451
I0
sS'101100100000'
p452
I0
sS'101100100001'
p453
I1
sS'011110101110'
p454
I0
sS'110110010101'
p455
I1
sS'011111000011'
p456
I0
sS'010000111111'
p457
I1
sS'011000000110'
p458
I0
sS'011000000111'
p459
I1
sS'100111010011'
p460
I1
sS'011101001100'
p461
I0
sS'011101001101'
p462
I0
sS'011110101111'
p463
I1
sS'100011010110'
p464
I0
sS'101100111010'
p465
I1
sS'100001011000'
p466
I0
sS'100001011001'
p467
I1
sS'110101000000'
p468
I0
sS'101001011000'
p469
I0
sS'001111000011'
p470
I0
sS'001111000010'
p471
I0
sS'100000010111'
p472
I0
sS'010100101110'
p473
I0
sS'010100101111'
p474
I1
sS'111111101011'
p475
I1
sS'111111101010'
p476
I0
sS'011110111101'
p477
I1
sS'110010000001'
p478
I1
sS'110010000000'
p479
I0
sS'111111011100'
p480
I0
sS'001110011010'
p481
I0
sS'001110011011'
p482
I1
sS'100011100000'
p483
I0
sS'100011100001'
p484
I1
sS'100010110000'
p485
I1
sS'100010110001'
p486
I0
sS'011100101111'
p487
I0
sS'010110101001'
p488
I1
sS'111101110111'
p489
I0
sS'110111000001'
p490
I1
sS'101000000010'
p491
I0
sS'110001010101'
p492
I0
sS'110001010100'
p493
I0
sS'011010011111'
p494
I1
sS'011111011111'
p495
I0
sS'011111011110'
p496
I0
sS'011010011110'
p497
I0
sS'110100011100'
p498
I0
sS'110100011101'
p499
I1
sS'101000101000'
p500
I0
sS'101000101001'
p501
I1
sS'001000100011'
p502
I0
sS'001000100010'
p503
I0
sS'010111001100'
p504
I0
sS'010111001101'
p505
I0
sS'010101001101'
p506
I0
sS'010101001100'
p507
I0
sS'001011011011'
p508
I1
sS'100010101011'
p509
I1
sS'100010101010'
p510
I0
sS'011100011001'
p511
I1
sS'011111101110'
p512
I0
sS'011000110011'
p513
I0
sS'100111111100'
p514
I0
sS'100111111101'
p515
I1
sS'010001100001'
p516
I0
sS'010001100000'
p517
I1
sS'001010110011'
p518
I0
sS'001010110010'
p519
I1
sS'011010100000'
p520
I0
sS'011010100001'
p521
I1
sS'001111110011'
p522
I0
sS'001111110010'
p523
I1
sS'110111011110'
p524
I0
sS'001010111010'
p525
I0
sS'001010111011'
p526
I1
sS'101001000100'
p527
I0
sS'101001000101'
p528
I0
sS'100001110110'
p529
I1
sS'100001110111'
p530
I0
sS'010110100110'
p531
I0
sS'010110100111'
p532
I1
sS'111110011100'
p533
I0
sS'111110011101'
p534
I1
sS'011100010110'
p535
I0
sS'011100010111'
p536
I1
sS'100111100111'
p537
I1
sS'100111100110'
p538
I0
sS'001111100011'
p539
I1
sS'101110011110'
p540
I1
sS'011000011101'
p541
I1
sS'011000011100'
p542
I0
sS'100001000000'
p543
I0
sS'100110110000'
p544
I0
sS'101100011010'
p545
I0
sS'011101010110'
p546
I1
sS'110000000101'
p547
I0
sS'110000000100'
p548
I1
sS'100011001101'
p549
I0
sS'100011001100'
p550
I0
sS'111010010100'
p551
I0
sS'111010010101'
p552
I1
sS'100111001010'
p553
I0
sS'100111001011'
p554
I1
sS'001011010000'
p555
I0
sS'001011010001'
p556
I1
sS'011011011110'
p557
I0
sS'011110000011'
p558
I0
sS'011110000010'
p559
I0
sS'110011111111'
p560
I0
sS'111001001001'
p561
I1
sS'111001001000'
p562
I0
sS'110001001101'
p563
I0
sS'111001101101'
p564
I0
sS'010101111110'
p565
I0
sS'111001101100'
p566
I0
sS'010100111001'
p567
I0
sS'010100111000'
p568
I1
sS'010101111111'
p569
I1
sS'010011011001'
p570
I1
sS'010011011000'
p571
I0
sS'000111111110'
p572
I0
sS'111100011111'
p573
I1
sS'001100011110'
p574
I0
sS'001100011111'
p575
I1
sS'010101010101'
p576
I0
sS'010101010100'
p577
I1
sS'000011110000'
p578
I0
sS'000011110001'
p579
I1
sS'110001001100'
p580
I0
sS'101100010101'
p581
I0
sS'101100010100'
p582
I1
sS'101101110001'
p583
I1
sS'001001101110'
p584
I0
sS'001001101111'
p585
I1
sS'011111110100'
p586
I0
sS'011111110101'
p587
I1
sS'000101101110'
p588
I0
sS'000101101111'
p589
I1
sS'101111000111'
p590
I1
sS'101111000110'
p591
I0
sS'110110001001'
p592
I1
sS'110110001000'
p593
I0
sS'101001111101'
p594
I0
sS'101001111100'
p595
I0
sS'000010001101'
p596
I0
sS'010000010001'
p597
I1
sS'110110010010'
p598
I0
sS'110110010011'
p599
I1
sS'100000110100'
p600
I1
sS'100000110101'
p601
I0
sS'000011101011'
p602
I1
sS'000011101010'
p603
I0
sS'000000010010'
p604
I0
sS'000000010011'
p605
I1
sS'110000011000'
p606
I1
sS'110000011001'
p607
I0
sS'111001010100'
p608
I0
sS'111001010101'
p609
I0
sS'010000000010'
p610
I1
sS'010000000011'
p611
I1
sS'001101101010'
p612
I0
sS'001101101011'
p613
I1
sS'000011100010'
p614
I0
sS'000011100011'
p615
I0
sS'010110111101'
p616
I1
sS'010110111100'
p617
I0
sS'010101101100'
p618
I0
sS'101000101011'
p619
I0
sS'011100001101'
p620
I1
sS'011100001100'
p621
I1
sS'101001011101'
p622
I0
sS'010011111110'
p623
I0
sS'100100111100'
p624
I1
sS'100100111101'
p625
I0
sS'011011100110'
p626
I0
sS'000100011111'
p627
I0
sS'000100011110'
p628
I1
sS'100100100111'
p629
I1
sS'100100100110'
p630
I0
sS'111110010011'
p631
I1
sS'001111111100'
p632
I0
sS'111010100001'
p633
I1
sS'111010100000'
p634
I0
sS'010101101101'
p635
I0
sS'111010001110'
p636
I0
sS'100100110110'
p637
I1
sS'000001101111'
p638
I0
sS'000001101110'
p639
I0
sS'111101011001'
p640
I1
sS'111101011000'
p641
I0
sS'101010010000'
p642
I1
sS'101010010001'
p643
I0
sS'101111100101'
p644
I0
sS'010011000100'
p645
I0
sS'010011000101'
p646
I0
sS'110001000010'
p647
I0
sS'110001000011'
p648
I0
sS'101111100100'
p649
I0
sS'010011100000'
p650
I0
sS'010011100001'
p651
I1
sS'011101011111'
p652
I1
sS'111000001101'
p653
I0
sS'111000001100'
p654
I0
sS'111110110001'
p655
I0
sS'111110110000'
p656
I1
sS'101100001000'
p657
I1
sS'101100001001'
p658
I0
sS'001011001011'
p659
I1
sS'001011001010'
p660
I0
sS'011001010110'
p661
I0
sS'001001110101'
p662
I0
sS'001001110100'
p663
I1
sS'101101001101'
p664
I0
sS'100110001011'
p665
I0
sS'100110001010'
p666
I1
sS'100100101101'
p667
I1
sS'101010001011'
p668
I1
sS'101010001010'
p669
I0
sS'110010011111'
p670
I1
sS'100100101100'
p671
I1
sS'101010000010'
p672
I0
sS'101010000011'
p673
I0
sS'100110000010'
p674
I1
sS'100110000011'
p675
I1
sS'010011111011'
p676
I0
sS'010011111010'
p677
I1
sS'010101011100'
p678
I0
sS'110000110110'
p679
I0
sS'110000110111'
p680
I1
sS'011111101100'
p681
I0
sS'011111101101'
p682
I0
sS'100111011001'
p683
I0
sS'001111010111'
p684
I0
sS'101000001111'
p685
I0
sS'101000001110'
p686
I0
sS'101111011111'
p687
I1
sS'101111011110'
p688
I0
sS'111101000100'
p689
I0
sS'111101000101'
p690
I0
sS'010101101111'
p691
I0
sS'100101100000'
p692
I1
sS'100101100001'
p693
I0
sS'001010010111'
p694
I0
sS'001010010110'
p695
I1
sS'111010011110'
p696
I0
sS'001111100010'
p697
I0
sS'010001010010'
p698
I0
sS'010001010011'
p699
I1
sS'111010000101'
p700
I0
sS'000011001101'
p701
I0
sS'001001010101'
p702
I1
sS'010000001011'
p703
I0
sS'010000001010'
p704
I1
sS'001000010000'
p705
I0
sS'001000010001'
p706
I1
sS'011110101010'
p707
I1
sS'011100100110'
p708
I0
sS'111111110011'
p709
I0
sS'111111110010'
p710
I0
sS'001111010001'
p711
I0
sS'001111010000'
p712
I1
sS'011100100111'
p713
I1
sS'111111111010'
p714
I0
sS'111111111011'
p715
I1
sS'011010111000'
p716
I1
sS'100101111011'
p717
I1
sS'010001001100'
p718
I0
sS'111101100000'
p719
I0
sS'001010111000'
p720
I1
sS'100111010100'
p721
I0
sS'100111010101'
p722
I1
sS'010001001101'
p723
I0
sS'110011110010'
p724
I0
sS'100011111011'
p725
I1
sS'100011111010'
p726
I0
sS'001111111101'
p727
I1
sS'001000001011'
p728
I1
sS'001000001010'
p729
I0
sS'100010100010'
p730
I0
sS'100010100011'
p731
I0
sS'100100000011'
p732
I1
sS'100100000010'
p733
I1
sS'000101101011'
p734
I0
sS'111010111100'
p735
I0
sS'100100001010'
p736
I1
sS'100100001011'
p737
I0
sS'110100000111'
p738
I1
sS'110100000110'
p739
I0
sS'010010100010'
p740
I0
sS'010010100011'
p741
I1
sS'001101010000'
p742
I0
sS'001101010001'
p743
I1
sS'000011001011'
p744
I1
sS'010011001110'
p745
I0
sS'111010111101'
p746
I1
sS'100110010011'
p747
I0
sS'100110010010'
p748
I1
sS'000101110101'
p749
I0
sS'000101110100'
p750
I1
sS'100000010011'
p751
I1
sS'100000010010'
p752
I0
sS'110101111100'
p753
I0
sS'110101111101'
p754
I0
sS'101100100011'
p755
I0
sS'101100100010'
p756
I1
sS'110101100111'
p757
I1
sS'110101100110'
p758
I0
sS'100000011010'
p759
I1
sS'100000011011'
p760
I0
sS'111010111010'
p761
I1
sS'011110110000'
p762
I0
sS'011110110001'
p763
I1
sS'100001011111'
p764
I0
sS'111010111011'
p765
I0
sS'101011011011'
p766
I1
sS'001101110100'
p767
I0
sS'001101110101'
p768
I1
sS'011000000101'
p769
I0
sS'011000000100'
p770
I1
sS'001110000100'
p771
I0
sS'001110000101'
p772
I1
sS'100011010101'
p773
I0
sS'100011010100'
p774
I0
sS'011101001111'
p775
I0
sS'011101001110'
p776
I0
sS'110101000011'
p777
I0
sS'110101000010'
p778
I0
sS'010111011101'
p779
I0
sS'011010010011'
p780
I1
sS'100001011011'
p781
I1
sS'100001011010'
p782
I0
sS'000010000101'
p783
I0
sS'100001010010'
p784
I0
sS'100001010011'
p785
I0
sS'111110001011'
p786
I1
sS'010010101110'
p787
I0
sS'010100101101'
p788
I0
sS'010100101100'
p789
I0
sS'101010101011'
p790
I1
sS'111011001101'
p791
I0
sS'001110111011'
p792
I0
sS'100011100011'
p793
I0
sS'100011100010'
p794
I0
sS'100010110011'
p795
I1
sS'100010110010'
p796
I0
sS'001110011001'
p797
I1
sS'001110011000'
p798
I0
sS'011011011011'
p799
I1
sS'001100000110'
p800
I0
sS'001100000111'
p801
I1
sS'000100110011'
p802
I1
sS'101110011111'
p803
I0
sS'101001100110'
p804
I0
sS'101001100111'
p805
I1
sS'101111011011'
p806
I0
sS'110100011111'
p807
I1
sS'110100011110'
p808
I0
sS'101001011100'
p809
I0
sS'101000101010'
p810
I0
sS'010111001111'
p811
I0
sS'010111001110'
p812
I0
sS'000101101010'
p813
I1
sS'001111101100'
p814
I0
sS'000010101100'
p815
I0
sS'000010101101'
p816
I0
sS'011010100011'
p817
I0
sS'011010100010'
p818
I0
sS'100111111111'
p819
I1
sS'100111111110'
p820
I0
sS'111000111110'
p821
I1
sS'111000111111'
p822
I0
sS'000001011100'
p823
I0
sS'000001011101'
p824
I0
sS'110010000100'
p825
I0
sS'110010000101'
p826
I0
sS'100001110101'
p827
I1
sS'100001110100'
p828
I0
sS'100011001000'
p829
I0
sS'100011001001'
p830
I1
sS'010110100101'
p831
I0
sS'010110100100'
p832
I0
sS'101001000111'
p833
I1
sS'101001000110'
p834
I0
sS'000101011110'
p835
I0
sS'000101011111'
p836
I1
sS'011011110101'
p837
I0
sS'011011110100'
p838
I0
sS'011100010101'
p839
I0
sS'011100010100'
p840
I1
sS'111011110100'
p841
I0
sS'111011100110'
p842
I0
sS'110011101110'
p843
I0
sS'111011100111'
p844
I1
sS'110010100000'
p845
I0
sS'110010100001'
p846
I1
sS'100001000011'
p847
I0
sS'111000011000'
p848
I1
sS'010101001000'
p849
I0
sS'010101001001'
p850
I1
sS'000111100110'
p851
I0
sS'000111100111'
p852
I1
sS'111100100010'
p853
I0
sS'100101001110'
p854
I0
sS'100101001111'
p855
I0
sS'101011101111'
p856
I0
sS'001110100000'
p857
I0
sS'100001000010'
p858
I0
sS'111010010111'
p859
I0
sS'111010010110'
p860
I1
sS'101100010000'
p861
I0
sS'101100010001'
p862
I1
sS'011000101110'
p863
I0
sS'011000101111'
p864
I1
sS'100111001001'
p865
I1
sS'100111001000'
p866
I0
sS'011011011000'
p867
I0
sS'001011010011'
p868
I0
sS'001011010010'
p869
I0
sS'110001100110'
p870
I0
sS'110001100111'
p871
I1
sS'110011101011'
p872
I1
sS'010011110010'
p873
I0
sS'010011110011'
p874
I1
sS'110101110000'
p875
I1
sS'110101110001'
p876
I0
sS'001000000110'
p877
I0
sS'010100010100'
p878
I0
sS'001100011101'
p879
I1
sS'001100011100'
p880
I0
sS'000000100011'
p881
I1
sS'011000011000'
p882
I1
sS'011000011001'
p883
I0
sS'000000001010'
p884
I0
sS'000000001011'
p885
I1
sS'000011110011'
p886
I0
sS'000011110010'
p887
I0
sS'111101011100'
p888
I0
sS'110000000000'
p889
I0
sS'110000000001'
p890
I1
sS'011100001000'
p891
I1
sS'011100001001'
p892
I0
sS'010001001010'
p893
I0
sS'010001001011'
p894
I1
sS'000011001010'
p895
I0
sS'001001101100'
p896
I0
sS'001111101101'
p897
I0
sS'001110100001'
p898
I1
sS'110101101011'
p899
I1
sS'110110010001'
p900
I0
sS'110110010000'
p901
I1
sS'010000010011'
p902
I0
sS'010000010010'
p903
I1
sS'010000011010'
p904
I0
sS'000000010000'
p905
I1
sS'100000110111'
p906
I1
sS'100000110110'
p907
I0
sS'000101000110'
p908
I0
sS'000101000111'
p909
I1
sS'010000000001'
p910
I0
sS'010000000000'
p911
I1
sS'000010110101'
p912
I1
sS'110000011010'
p913
I1
sS'000011100001'
p914
I1
sS'100000010110'
p915
I1
sS'111001010111'
p916
I1
sS'111001010110'
p917
I0
sS'001000000010'
p918
I0
sS'001000000011'
p919
I0
sS'001101101001'
p920
I0
sS'001101101000'
p921
I1
sS'010100111100'
p922
I0
sS'010100111101'
p923
I1
sS'010011011100'
p924
I0
sS'010011011101'
p925
I0
sS'010101010000'
p926
I0
sS'010101010001'
p927
I1
sS'001001110000'
p928
I0
sS'001001110001'
p929
I1
sS'110011000110'
p930
I0
sS'110011000111'
p931
I1
sS'101101000110'
p932
I0
sS'101010100101'
p933
I0
sS'110010010011'
p934
I1
sS'010110001110'
p935
I0
sS'110010010010'
p936
I0
sS'101010010011'
p937
I1
sS'101010010010'
p938
I0
sS'000010001000'
p939
I0
sS'010011000110'
p940
I0
sS'100110011010'
p941
I0
sS'100110011011'
p942
I1
sS'010000011011'
p943
I1
sS'011000110111'
p944
I1
sS'110001000001'
p945
I1
sS'110001000000'
p946
I0
sS'100000001110'
p947
I0
sS'100000001111'
p948
I0
sS'101100001011'
p949
I0
sS'101100001010'
p950
I1
sS'010011101010'
p951
I0
sS'010011101011'
p952
I1
sS'010111101110'
p953
I0
sS'010111101111'
p954
I0
sS'100001101000'
p955
I0
sS'100001101001'
p956
I1
sS'010110111000'
p957
I1
sS'110001111100'
p958
I0
sS'111011011111'
p959
I0
sS'111011011110'
p960
I0
sS'011010011001'
p961
I0
sS'100110000001'
p962
I0
sS'100110000000'
p963
I1
sS'100010110100'
p964
I0
sS'101010000001'
p965
I1
sS'101010000000'
p966
I0
sS'110000110101'
p967
I0
sS'110000110100'
p968
I1
sS'001010110101'
p969
I0
sS'000111001110'
p970
I0
sS'000111001111'
p971
I0
sS'111010100100'
p972
I0
sS'111010100101'
p973
I0
sS'011111101111'
p974
I0
sS'001010110100'
p975
I1
sS'110101001010'
p976
I0
sS'110101001011'
p977
I1
sS'001111001001'
p978
I1
sS'001111001000'
p979
I0
sS'011011100010'
p980
I0
sS'011011100011'
p981
I0
sS'111101000111'
p982
I1
sS'111101000110'
p983
I0
sS'010001010001'
p984
I0
sS'010001010000'
p985
I1
sS'100101100011'
p986
I1
sS'100101100010'
p987
I0
sS'011001111011'
p988
I0
sS'111110100110'
p989
I0
sS'010100001100'
p990
I0
sS'010100001101'
p991
I0
sS'001000010011'
p992
I0
sS'001000010010'
p993
I0
sS'111110100111'
p994
I1
sS'100100111111'
p995
I1
sS'100100111110'
p996
I0
sS'110110101111'
p997
I0
sS'111111111001'
p998
I1
sS'111111111000'
p999
I0
sS'111101100011'
p1000
I0
sS'111101100010'
p1001
I0
sS'010010111010'
p1002
I0
sS'010010111011'
p1003
I1
sS'111111100010'
p1004
I0
sS'100111010110'
p1005
I1
sS'010110010110'
p1006
I1
sS'010110010111'
p1007
I0
sS'010011111111'
p1008
I1
sS'100010100001'
p1009
I1
sS'100010100000'
p1010
I0
sS'101101011101'
p1011
I1
sS'101101011100'
p1012
I0
sS'100100010111'
p1013
I1
sS'100100001001'
p1014
I0
sS'100100001000'
p1015
I1
sS'011110010111'
p1016
I0
sS'001101010011'
p1017
I0
sS'001101010010'
p1018
I1
sS'011110010110'
p1019
I1
sS'111000100110'
p1020
I0
sS'111000100111'
p1021
I0
sS'001101011010'
p1022
I0
sS'001101011011'
p1023
I1
sS'001111010100'
p1024
I0
sS'001111010101'
p1025
I1
sS'110101111111'
p1026
I1
sS'010011101100'
p1027
I0
sS'101100111000'
p1028
I0
sS'010011101101'
p1029
I0
sS'000110111100'
p1030
I1
sS'101100111001'
p1031
I1
sS'100000011001'
p1032
I0
sS'100000011000'
p1033
I1
sS'011110110011'
p1034
I0
sS'011110110010'
p1035
I1
sS'101011101000'
p1036
I0
sS'101011101001'
p1037
I1
sS'111110110010'
p1038
I0
sS'111000101111'
p1039
I1
sS'011110101000'
p1040
I0
sS'101000101101'
p1041
I0
sS'001101110111'
p1042
I0
sS'101001011011'
p1043
I1
sS'011010110010'
p1044
I0
sS'011010110011'
p1045
I1
sS'001110011100'
p1046
I1
sS'001000011110'
p1047
I0
sS'100101010110'
p1048
I1
sS'100101010111'
p1049
I0
sS'001110000111'
p1050
I0
sS'001110000110'
p1051
I1
sS'011110100001'
p1052
I0
sS'010111001001'
p1053
I1
sS'100100001110'
p1054
I1
sS'010111001000'
p1055
I0
sS'010101101110'
p1056
I0
sS'100001010001'
p1057
I1
sS'100001010000'
p1058
I0
sS'110110110000'
p1059
I1
sS'110110110001'
p1060
I0
sS'001011111110'
p1061
I0
sS'110001100101'
p1062
I0
sS'010010101111'
p1063
I1
sS'010101011101'
p1064
I0
sS'010010100001'
p1065
I0
sS'010010100000'
p1066
I1
sS'001010111100'
p1067
I0
sS'101110011100'
p1068
I1
sS'010011101110'
p1069
I0
sS'001100000101'
p1070
I0
sS'001100000100'
p1071
I1
sS'011000000000'
p1072
I0
sS'011000000001'
p1073
I1
sS'100011010000'
p1074
I0
sS'100011010001'
p1075
I1
sS'101001011111'
p1076
I0
sS'010101011010'
p1077
I0
sS'010111011000'
p1078
I0
sS'010111011001'
p1079
I1
sS'100111111000'
p1080
I1
sS'000010101111'
p1081
I0
sS'000010101110'
p1082
I0
sS'010111111001'
p1083
I1
sS'100011000010'
p1084
I0
sS'100011000011'
p1085
I0
sS'110000010010'
p1086
I0
sS'110000010011'
p1087
I1
sS'000001011111'
p1088
I0
sS'000001011110'
p1089
I0
sS'101011111001'
p1090
I1
sS'110010000111'
p1091
I1
sS'110010000110'
p1092
I0
sS'011010100101'
p1093
I0
sS'011111110111'
p1094
I0
sS'000011111001'
p1095
I1
sS'110010011000'
p1096
I1
sS'011111110110'
p1097
I1
sS'101101000111'
p1098
I1
sS'000101011101'
p1099
I1
sS'000101011100'
p1100
I0
sS'101011111000'
p1101
I0
sS'010010011110'
p1102
I0
sS'010010011111'
p1103
I1
sS'000101101101'
p1104
I0
sS'011001100110'
p1105
I0
sS'000101101100'
p1106
I0
sS'110010100011'
p1107
I0
sS'110010100010'
p1108
I0
sS'010101001011'
p1109
I0
sS'010101001010'
p1110
I1
sS'000111100101'
p1111
I0
sS'000111100100'
p1112
I0
sS'111100100001'
p1113
I0
sS'111100100000'
p1114
I0
sS'100101001101'
p1115
I0
sS'100101001100'
p1116
I0
sS'110010101010'
p1117
I0
sS'110010101011'
p1118
I1
sS'001110100011'
p1119
I0
sS'001110100010'
p1120
I1
sS'101110000110'
p1121
I1
sS'101110000111'
p1122
I0
sS'001110101010'
p1123
I0
sS'001110101011'
p1124
I1
sS'011011110000'
p1125
I0
sS'101100010011'
p1126
I0
sS'101100010010'
p1127
I1
sS'100001110000'
p1128
I1
sS'100001110001'
p1129
I0
sS'011000101101'
p1130
I0
sS'011000101100'
p1131
I0
sS'010110100000'
p1132
I0
sS'110001100100'
p1133
I0
sS'110011110100'
p1134
I0
sS'010011110001'
p1135
I0
sS'010011110000'
p1136
I1
sS'011100010000'
p1137
I0
sS'011100010001'
p1138
I1
sS'011001110111'
p1139
I0
sS'100111100011'
p1140
I0
sS'011100111110'
p1141
I0
sS'100010010010'
p1142
I0
sS'100010010011'
p1143
I1
sS'000000001001'
p1144
I1
sS'000000001000'
p1145
I0
sS'110000000011'
p1146
I0
sS'110000000010'
p1147
I0
sS'100011001011'
p1148
I1
sS'100011001010'
p1149
I0
sS'000111111000'
p1150
I1
sS'000111111001'
p1151
I0
sS'000011001001'
p1152
I1
sS'000011001000'
p1153
I0
sS'011100001011'
p1154
I0
sS'011100001010'
p1155
I1
sS'111110110011'
p1156
I1
sS'010110011010'
p1157
I1
sS'010001001001'
p1158
I1
sS'010001001000'
p1159
I0
sS'011001110110'
p1160
I1
sS'010110011011'
p1161
I0
sS'101010110111'
p1162
I0
sS'100111001100'
p1163
I0
sS'100111001101'
p1164
I0
sS'101011110101'
p1165
I0
sS'011010010101'
p1166
I1
sS'000101000101'
p1167
I0
sS'000101000100'
p1168
I1
sS'010000011001'
p1169
I1
sS'010000011000'
p1170
I0
sS'000100101011'
p1171
I1
sS'000000010001'
p1172
I0
sS'001000000001'
p1173
I1
sS'001000000000'
p1174
I0
sS'010100111111'
p1175
I0
sS'010100111110'
p1176
I1
sS'001100011000'
p1177
I1
sS'001100011001'
p1178
I0
sS'010011011111'
p1179
I0
sS'010011011110'
p1180
I0
sS'101011110111'
p1181
I1
sS'010101010011'
p1182
I0
sS'010101010010'
p1183
I0
sS'110011000101'
p1184
I0
sS'110011000100'
p1185
I0
sS'110001111000'
p1186
I0
sS'001001110010'
p1187
I1
sS'101101000101'
p1188
I0
sS'101101000100'
p1189
I1
sS'110000101000'
p1190
I0
sS'110000101001'
p1191
I1
sS'000101101000'
p1192
I0
sS'010110001100'
p1193
I0
sS'001001101000'
p1194
I0
sS'001001101001'
p1195
I1
sS'111000101100'
p1196
I0
sS'111001001101'
p1197
I0
sS'111000101101'
p1198
I0
sS'101001111011'
p1199
I0
sS'101001111010'
p1200
I1
sS'110110010100'
p1201
I0
sS'011000110100'
p1202
I1
sS'000010001011'
p1203
I1
sS'000010001010'
p1204
I0
sS'100110011001'
p1205
I1
sS'100110011000'
p1206
I0
sS'100000001101'
p1207
I0
sS'000000010101'
p1208
I1
sS'010000000100'
p1209
I0
sS'010000000101'
p1210
I1
sS'010111110110'
p1211
I0
sS'010111110111'
p1212
I1
sS'000011100100'
p1213
I0
sS'100001101010'
p1214
I0
sS'010011101001'
p1215
I1
sS'010011101000'
p1216
I0
sS'001101000010'
p1217
I1
sS'001101000011'
p1218
I1
sS'010111101101'
p1219
I0
sS'000011100000'
p1220
I0
sS'100001100010'
p1221
I0
sS'100001100011'
p1222
I0
sS'011001001110'
p1223
I0
sS'011001001111'
p1224
I1
sS'000111001101'
p1225
I0
sS'000111001100'
p1226
I0
sS'110101001001'
p1227
I1
sS'110101001000'
p1228
I0
sS'111010100111'
p1229
I1
sS'111010100110'
p1230
I0
sS'111101011111'
p1231
I0
sS'111101011110'
p1232
I0
sS'011001111110'
p1233
I0
sS'101101100001'
p1234
I0
sS'011011100001'
p1235
I1
sS'011011100000'
p1236
I0
sS'111111010100'
p1237
I0
sS'111100010111'
p1238
I0
sS'110001000100'
p1239
I0
sS'110001000101'
p1240
I0
sS'010100001111'
p1241
I0
sS'010100001110'
p1242
I0
sS'110011100001'
p1243
I1
sS'110011100000'
p1244
I0
sS'100100001100'
p1245
I1
sS'100100001101'
p1246
I1
sS'101101100000'
p1247
I1
sS'010000110010'
p1248
I0
sS'010000110011'
p1249
I1
sS'010110110010'
p1250
I0
sS'101101101100'
p1251
I0
sS'100110000100'
p1252
I1
sS'100110000101'
p1253
I1
sS'101000111110'
p1254
I1
sS'111111100001'
p1255
I1
sS'111111100000'
p1256
I0
sS'000000111010'
p1257
I0
sS'010010111000'
p1258
I1
sS'110000110000'
p1259
I0
sS'011010000100'
p1260
I0
sS'100010101001'
p1261
I1
sS'110111001110'
p1262
I0
sS'110111001111'
p1263
I0
sS'010110010101'
p1264
I1
sS'010110010100'
p1265
I0
sS'111000001011'
p1266
I1
sS'001111001100'
p1267
I0
sS'001111001101'
p1268
I0
sS'011111000110'
p1269
I0
sS'101101110011'
p1270
I0
sS'010001010100'
p1271
I0
sS'010001010101'
p1272
I1
sS'000011010100'
p1273
I0
sS'000011010101'
p1274
I0
sS'100100011110'
p1275
I1
sS'100100011111'
p1276
I0
sS'100110101111'
p1277
I1
sS'111110111100'
p1278
I0
sS'100110101110'
p1279
I1
sS'111000100101'
p1280
I1
sS'111000100100'
p1281
I0
sS'001101011001'
p1282
I1
sS'001001011000'
p1283
I1
sS'101110110111'
p1284
I1
sS'001001011001'
p1285
I0
sS'101010110010'
p1286
I0
sS'101010110011'
p1287
I1
sS'110101110110'
p1288
I1
sS'011010101010'
p1289
I0
sS'011010101011'
p1290
I1
sS'000110111111'
p1291
I0
sS'000110111110'
p1292
I1
sS'010100010111'
p1293
I0
sS'101011101011'
p1294
I1
sS'110000101110'
p1295
I0
sS'110010111110'
p1296
I0
sS'110010111111'
p1297
I1
sS'110000101111'
p1298
I1
sS'001111101110'
p1299
I0
sS'110011011000'
p1300
I0
sS'110011011001'
p1301
I1
sS'101101011000'
p1302
I1
sS'101101011001'
p1303
I0
sS'000110011110'
p1304
I1
sS'000110011111'
p1305
I0
sS'100111011111'
p1306
I1
sS'111000110111'
p1307
I1
sS'011010110001'
p1308
I0
sS'011010110000'
p1309
I1
sS'010010100100'
p1310
I0
sS'010010100101'
p1311
I1
sS'100101010101'
p1312
I1
sS'100101010100'
p1313
I0
sS'101000111111'
p1314
I0
sS'001010110001'
p1315
I1
sS'111111001010'
p1316
I0
sS'111111001011'
p1317
I1
sS'010110110110'
p1318
I1
sS'110110110011'
p1319
I1
sS'110110110010'
p1320
I0
sS'010000101010'
p1321
I0
sS'010000101011'
p1322
I1
sS'010001111010'
p1323
I0
sS'010001111011'
p1324
I1
sS'110110111010'
p1325
I1
sS'011101110001'
p1326
I1
sS'100000011100'
p1327
I0
sS'100000011101'
p1328
I1
sS'001000110010'
p1329
I0
sS'001000110011'
p1330
I1
sS'110111010110'
p1331
I0
sS'110111010111'
p1332
I1
sS'000100111100'
p1333
I1
sS'001010111111'
p1334
I0
sS'001010111110'
p1335
I1
sS'100010001010'
p1336
I0
sS'100010001011'
p1337
I1
sS'011111000111'
p1338
I1
sS'010011001111'
p1339
I0
sS'101001111000'
p1340
I0
sS'000001010111'
p1341
I1
sS'100011010011'
p1342
I0
sS'100011010010'
p1343
I0
sS'001000111011'
p1344
I0
sS'100011011010'
p1345
I0
sS'100011011011'
p1346
I1
sS'010111011011'
p1347
I1
sS'001000111010'
p1348
I1
sS'100011000001'
p1349
I1
sS'100011000000'
p1350
I0
sS'100110101010'
p1351
I1
sS'100110101011'
p1352
I0
sS'010011000111'
p1353
I1
sS'110000010001'
p1354
I0
sS'010100101010'
p1355
I0
sS'110100111110'
p1356
I1
sS'110100111111'
p1357
I0
sS'001010101111'
p1358
I1
sS'001010101101'
p1359
I0
sS'001010101100'
p1360
I0
sS'010111111011'
p1361
I1
sS'111100111001'
p1362
I0
sS'111100111000'
p1363
I1
sS'111100011011'
p1364
I0
sS'101110011000'
p1365
I0
sS'101110011001'
p1366
I1
sS'011000110110'
p1367
I0
sS'001100000000'
p1368
I0
sS'001100000001'
p1369
I1
sS'010010011101'
p1370
I1
sS'010010011100'
p1371
I0
sS'101001100000'
p1372
I0
sS'101001100001'
p1373
I1
sS'011001100101'
p1374
I0
sS'011001100100'
p1375
I1
sS'101001110010'
p1376
I0
sS'101001110011'
p1377
I1
sS'011001111101'
p1378
I0
sS'110010101001'
p1379
I1
sS'110010101000'
p1380
I0
sS'011001111100'
p1381
I0
sS'111000111000'
p1382
I1
sS'111000111001'
p1383
I0
sS'100000101100'
p1384
I0
sS'100000101101'
p1385
I0
sS'001110101001'
p1386
I0
sS'001110101000'
p1387
I1
sS'101110000101'
p1388
I1
sS'101110000100'
p1389
I1
sS'010011100011'
p1390
I0
sS'010111110011'
p1391
I0
sS'011110010001'
p1392
I0
sS'010011100010'
p1393
I0
sS'000100001111'
p1394
I1
sS'000111010110'
p1395
I1
sS'000100101100'
p1396
I1
sS'100001110011'
p1397
I1
sS'100001110010'
p1398
I0
sS'101100011001'
p1399
I1
sS'101100011000'
p1400
I0
sS'100001111010'
p1401
I1
sS'100001111011'
p1402
I0
sS'000101011000'
p1403
I1
sS'000101011001'
p1404
I0
sS'011100010011'
p1405
I0
sS'011100010010'
p1406
I1
sS'101100000010'
p1407
I1
sS'101100000011'
p1408
I1
sS'010110111010'
p1409
I1
sS'111011111110'
p1410
I0
sS'111011111111'
p1411
I0
sS'100010010001'
p1412
I0
sS'100010010000'
p1413
I1
sS'000111100000'
p1414
I0
sS'000111100001'
p1415
I1
sS'111100100100'
p1416
I0
sS'111100100101'
p1417
I1
sS'100101001000'
p1418
I0
sS'100101001001'
p1419
I1
sS'001101011110'
p1420
I1
sS'000111111011'
p1421
I0
sS'000111111010'
p1422
I1
sS'011001110101'
p1423
I1
sS'110001111110'
p1424
I0
sS'101011000000'
p1425
I0
sS'101011000001'
p1426
I1
sS'111011110001'
p1427
I1
sS'011011000101'
p1428
I0
sS'011011000100'
p1429
I0
sS'111011110000'
p1430
I0
sS'011000101000'
p1431
I0
sS'011000101001'
p1432
I1
sS'110001100000'
p1433
I0
sS'110001100001'
p1434
I1
sS'111101101001'
p1435
I1
sS'111101101000'
p1436
I0
sS'101110110110'
p1437
I0
sS'000001111111'
p1438
I1
sS'011001010101'
p1439
I0
sS'101001110110'
p1440
I1
sS'010011110100'
p1441
I0
sS'010011110101'
p1442
I1
sS'111001011011'
p1443
I1
sS'010110111001'
p1444
I0
sS'111000010110'
p1445
I1
sS'111000010111'
p1446
I0
sS'110001110010'
p1447
I0
sS'110001110011'
p1448
I1
sS'101000110110'
p1449
I0
sS'101000110111'
p1450
I1
sS'001100011011'
p1451
I0
sS'001100011010'
p1452
I1
sS'101001101010'
p1453
I0
sS'101001101011'
p1454
I1
sS'001100010010'
p1455
I0
sS'001100010011'
p1456
I1
sS'000000001100'
p1457
I0
sS'000000001101'
p1458
I0
sS'110000101011'
p1459
I0
sS'110000101010'
p1460
I0
sS'101110101101'
p1461
I1
sS'101110101100'
p1462
I1
sS'000011001100'
p1463
I0
sS'001001101010'
p1464
I0
sS'011100101011'
p1465
I1
sS'011111001110'
p1466
I0
sS'011111001111'
p1467
I0
sS'110000100010'
p1468
I0
sS'110000100011'
p1469
I1
sS'101110110011'
p1470
I0
sS'110110010111'
p1471
I0
sS'110110010110'
p1472
I1
sS'101011110000'
p1473
I0
sS'101011110001'
p1474
I1
sS'111111111101'
p1475
I0
sS'000101000000'
p1476
I0
sS'000101000001'
p1477
I1
sS'000000010111'
p1478
I0
sS'000000010110'
p1479
I1
sS'010111110101'
p1480
I0
sS'010111110100'
p1481
I0
sS'010000000111'
p1482
I0
sS'010000000110'
p1483
I1
sS'000011100111'
p1484
I1
sS'000011100110'
p1485
I0
sS'001101000001'
p1486
I0
sS'001101000000'
p1487
I1
sS'100001100001'
p1488
I1
sS'100001100000'
p1489
I0
sS'000101010010'
p1490
I0
sS'000101010011'
p1491
I1
sS'011001001101'
p1492
I0
sS'011001001100'
p1493
I0
sS'110011100100'
p1494
I0
sS'110011100101'
p1495
I0
sS'110011000000'
p1496
I0
sS'110011000001'
p1497
I1
sS'010111100011'
p1498
I0
sS'101101000000'
p1499
I0
sS'101101000001'
p1500
I1
sS'000110000110'
p1501
I1
sS'000110000111'
p1502
I0
sS'010110001000'
p1503
I0
sS'010110001001'
p1504
I1
sS'110101011110'
p1505
I0
sS'110101011111'
p1506
I0
sS'101011000111'
p1507
I1
sS'001100110101'
p1508
I0
sS'001100110100'
p1509
I1
sS'011000110000'
p1510
I0
sS'011000110001'
p1511
I1
sS'110001000111'
p1512
I1
sS'110001000110'
p1513
I0
sS'100110011100'
p1514
I1
sS'100110011101'
p1515
I0
sS'100000001000'
p1516
I0
sS'100000001001'
p1517
I1
sS'000100100110'
p1518
I0
sS'000100100111'
p1519
I1
sS'011000100010'
p1520
I0
sS'011000100011'
p1521
I1
sS'110001111011'
p1522
I0
sS'110001111010'
p1523
I1
sS'010111101000'
p1524
I0
sS'010111101001'
p1525
I1
sS'100100001111'
p1526
I1
sS'011110100000'
p1527
I1
sS'001000101010'
p1528
I0
sS'001000101011'
p1529
I1
sS'111010101111'
p1530
I0
sS'010000110001'
p1531
I0
sS'010000110000'
p1532
I1
sS'101011011101'
p1533
I0
sS'000111111101'
p1534
I1
sS'000000111001'
p1535
I0
sS'000000111000'
p1536
I1
sS'100110000111'
p1537
I0
sS'100110000110'
p1538
I1
sS'001001010010'
p1539
I0
sS'001001010011'
p1540
I1
sS'111011010010'
p1541
I0
sS'000111001000'
p1542
I0
sS'000111001001'
p1543
I1
sS'110000110011'
p1544
I0
sS'110000110010'
p1545
I1
sS'111110110111'
p1546
I0
sS'110101001100'
p1547
I0
sS'110101001101'
p1548
I0
sS'110111001101'
p1549
I0
sS'110111001100'
p1550
I0
sS'001111001111'
p1551
I0
sS'001111001110'
p1552
I0
sS'101011011100'
p1553
I0
sS'000111111100'
p1554
I0
sS'011011100100'
p1555
I0
sS'011011100101'
p1556
I0
sS'000011010111'
p1557
I1
sS'000011010110'
p1558
I0
sS'100100011101'
p1559
I0
sS'100100011100'
p1560
I1
sS'010001010111'
p1561
I0
sS'010001010110'
p1562
I1
sS'101100110010'
p1563
I0
sS'101100110011'
p1564
I1
sS'001001000110'
p1565
I0
sS'001001000111'
p1566
I1
sS'010010000110'
p1567
I0
sS'010010000111'
p1568
I1
sS'110100100110'
p1569
I0
sS'110100100111'
p1570
I0
sS'101010110001'
p1571
I0
sS'101010110000'
p1572
I1
sS'111101011101'
p1573
I0
sS'011010101001'
p1574
I1
sS'011010101000'
p1575
I0
sS'001100101000'
p1576
I0
sS'001100101001'
p1577
I1
sS'111111100100'
p1578
I0
sS'111111100101'
p1579
I0
sS'010010111100'
p1580
I0
sS'010010111101'
p1581
I1
sS'011101101110'
p1582
I0
sS'011101101111'
p1583
I1
sS'110010111101'
p1584
I1
sS'110010111100'
p1585
I0
sS'110010010111'
p1586
I0
sS'010110010000'
p1587
I1
sS'010110010001'
p1588
I0
sS'110011011011'
p1589
I1
sS'110011011010'
p1590
I0
sS'101101011011'
p1591
I0
sS'101101011010'
p1592
I1
sS'000110011101'
p1593
I0
sS'000110011100'
p1594
I1
sS'110011010010'
p1595
I0
sS'110011010011'
p1596
I0
sS'000100001110'
p1597
I1
sS'011110010000'
p1598
I1
sS'111001110011'
p1599
I1
sS'010010100111'
p1600
I0
sS'010010100110'
p1601
I1
sS'010110101110'
p1602
I0
sS'100111001111'
p1603
I0
sS'111111001001'
p1604
I1
sS'111111001000'
p1605
I0
sS'111000100000'
p1606
I0
sS'111000100001'
p1607
I0
sS'001101011100'
p1608
I1
sS'001101011101'
p1609
I0
sS'101011010010'
p1610
I0
sS'010000101001'
p1611
I0
sS'010000101000'
p1612
I1
sS'010001111001'
p1613
I0
sS'010001111000'
p1614
I1
sS'110110111001'
p1615
I0
sS'110110111000'
p1616
I1
sS'100010001000'
p1617
I0
sS'001000110001'
p1618
I0
sS'001000110000'
p1619
I1
sS'100000011111'
p1620
I1
sS'100000011110'
p1621
I0
sS'110111010101'
p1622
I0
sS'110111010100'
p1623
I0
sS'010101110010'
p1624
I0
sS'010100110011'
p1625
I0
sS'111100111100'
p1626
I0
sS'111100111101'
p1627
I1
sS'100010001001'
p1628
I1
sS'111001010000'
p1629
I0
sS'011010110100'
p1630
I0
sS'011010110101'
p1631
I1
sS'111110011111'
p1632
I1
sS'100101010000'
p1633
I1
sS'100101010001'
p1634
I0
sS'110011100010'
p1635
I0
sS'110011100011'
p1636
I0
sS'101000011110'
p1637
I0
sS'101000011111'
p1638
I1
sS'100011011001'
p1639
I1
sS'100011011000'
p1640
I0
sS'100110101001'
p1641
I0
sS'100110101000'
p1642
I1
sS'010010110011'
p1643
I0
sS'101010101001'
p1644
I1
sS'101010101000'
p1645
I0
sS'011110100011'
p1646
I1
sS'110100111100'
p1647
I0
sS'011110001010'
p1648
I0
sS'011110001011'
p1649
I1
sS'011101110110'
p1650
I0
sS'011101110111'
p1651
I1
sS'001110101100'
p1652
I1
sS'001110101101'
p1653
I1
sS'101110000000'
p1654
I1
sS'101110000001'
p1655
I0
sS'000100101101'
p1656
I1
sS'100011110110'
p1657
I0
sS'001100000011'
p1658
I0
sS'001100000010'
p1659
I0
sS'101110011011'
p1660
I1
sS'101110011010'
p1661
I0
sS'101001100011'
p1662
I0
sS'101001100010'
p1663
I0
sS'101110010010'
p1664
I1
sS'010000111101'
p1665
I0
sS'010001100100'
p1666
I0
sS'010001100101'
p1667
I1
sS'010100111011'
p1668
I1
sS'001011000010'
p1669
I0
sS'101001110000'
p1670
I1
sS'100011000100'
p1671
I0
sS'100011000101'
p1672
I0
sS'101111101111'
p1673
I0
sS'111100000101'
p1674
I0
sS'100000101110'
p1675
I0
sS'010011011011'
p1676
I1
sS'111000111011'
p1677
I1
sS'111000111010'
p1678
I0
sS'011100101110'
p1679
I1
sS'001110111111'
p1680
I1
sS'001010101000'
p1681
I0
sS'001010101001'
p1682
I1
sS'111000010011'
p1683
I1
sS'000011111111'
p1684
I0
sS'000011111110'
p1685
I0
sS'001010001100'
p1686
I0
sS'001010001101'
p1687
I0
sS'100111101101'
p1688
I0
sS'000111010101'
p1689
I1
sS'000111010100'
p1690
I0
sS'000101011011'
p1691
I0
sS'000101011010'
p1692
I1
sS'100001111001'
p1693
I1
sS'100001111000'
p1694
I0
sS'101100000001'
p1695
I0
sS'101100000000'
p1696
I1
sS'100110110100'
p1697
I1
sS'100110110101'
p1698
I0
sS'010010011000'
p1699
I1
sS'010010011001'
p1700
I0
sS'010111010101'
p1701
I0
sS'011001100000'
p1702
I0
sS'011001100001'
p1703
I1
sS'111011111101'
p1704
I0
sS'111011111100'
p1705
I0
sS'101101110101'
p1706
I0
sS'011110010101'
p1707
I1
sS'101101110100'
p1708
I1
sS'111100100111'
p1709
I0
sS'111100100110'
p1710
I0
sS'110010101100'
p1711
I0
sS'110010101101'
p1712
I0
sS'000111100011'
p1713
I0
sS'000111100010'
p1714
I0
sS'110101010011'
p1715
I0
sS'100101001011'
p1716
I1
sS'100101001010'
p1717
I0
sS'011001000111'
p1718
I0
sS'100101000010'
p1719
I0
sS'100101000011'
p1720
I0
sS'000011000111'
p1721
I1
sS'101011000011'
p1722
I0
sS'101011000010'
p1723
I0
sS'100101110010'
p1724
I1
sS'100101110011'
p1725
I0
sS'000100111110'
p1726
I0
sS'100011110010'
p1727
I0
sS'100011110011'
p1728
I0
sS'011111111010'
p1729
I1
sS'011000101011'
p1730
I0
sS'011000101010'
p1731
I0
sS'101011001010'
p1732
I0
sS'101011001011'
p1733
I1
sS'101110110101'
p1734
I0
sS'101110110100'
p1735
I1
sS'110001100011'
p1736
I0
sS'110001100010'
p1737
I0
sS'010101100110'
p1738
I0
sS'010101100111'
p1739
I1
sS'111101111110'
p1740
I0
sS'111101111111'
p1741
I1
sS'110001101010'
p1742
I0
sS'110001101011'
p1743
I1
sS'111000010101'
p1744
I1
sS'111000010100'
p1745
I0
sS'010011110111'
p1746
I0
sS'010011110110'
p1747
I1
sS'110001110001'
p1748
I0
sS'110001110000'
p1749
I1
sS'111100011000'
p1750
I1
sS'111100011001'
p1751
I0
sS'110100111101'
p1752
I1
sS'101000110101'
p1753
I0
sS'101000110100'
p1754
I1
sS'011010001110'
p1755
I0
sS'011010001111'
p1756
I0
sS'100010010100'
p1757
I0
sS'101001101000'
p1758
I0
sS'110000100111'
p1759
I0
sS'000000001111'
p1760
I0
sS'000000001110'
p1761
I0
sS'001111111010'
p1762
I0
sS'001100010001'
p1763
I0
sS'001100010000'
p1764
I1
sS'100001100100'
p1765
I0
sS'100001100101'
p1766
I0
sS'110000100001'
p1767
I0
sS'010001001110'
p1768
I0
sS'001111100001'
p1769
I0
sS'001111100000'
p1770
I1
sS'011111001101'
p1771
I0
sS'011111001100'
p1772
I0
sS'101100101010'
p1773
I0
sS'101100101011'
p1774
I1
sS'011011000000'
p1775
I0
sS'011011000001'
p1776
I1
sS'110011010111'
p1777
I1
sS'111101101100'
p1778
I0
sS'001101101111'
p1779
I0
sS'101011110011'
p1780
I0
sS'101011110010'
p1781
I0
sS'111110111010'
p1782
I1
sS'000101000011'
p1783
I0
sS'000101000010'
p1784
I0
sS'111110101111'
p1785
I0
sS'011011010010'
p1786
I0
sS'011011010011'
p1787
I0
sS'011001100111'
p1788
I1
sS'100011110100'
p1789
I0
sS'100011110101'
p1790
I0
sS'000101010001'
p1791
I0
sS'000101010000'
p1792
I1
sS'110110100110'
p1793
I0
sS'101011100010'
p1794
I0
sS'000000100100'
p1795
I0
sS'000000100101'
p1796
I1
sS'000100111000'
p1797
I0
sS'000100111001'
p1798
I1
sS'110011000011'
p1799
I0
sS'110011000010'
p1800
I0
sS'001000111101'
p1801
I0
sS'101101000011'
p1802
I0
sS'101101000010'
p1803
I0
sS'110011001010'
p1804
I0
sS'110011001011'
p1805
I1
sS'000110000101'
p1806
I1
sS'000110000100'
p1807
I1
sS'110101011101'
p1808
I0
sS'110101011100'
p1809
I0
sS'111000001000'
p1810
I0
sS'010110001010'
p1811
I0
sS'010110000010'
p1812
I0
sS'010110000011'
p1813
I0
sS'100011101010'
p1814
I0
sS'000010001111'
p1815
I0
sS'110110101101'
p1816
I0
sS'110110101100'
p1817
I0
sS'100010111010'
p1818
I1
sS'011000110010'
p1819
I1
sS'100000001011'
p1820
I1
sS'100000001010'
p1821
I0
sS'010111110000'
p1822
I0
sS'010111110001'
p1823
I1
sS'011100111111'
p1824
I1
sS'011000100001'
p1825
I0
sS'011000100000'
p1826
I0
sS'011110011110'
p1827
I0
sS'010111101011'
p1828
I1
sS'010111101010'
p1829
I0
sS'000100100101'
p1830
I0
sS'000100100100'
p1831
I1
sS'100111101011'
p1832
I1
sS'001101000100'
p1833
I0
sS'001101000101'
p1834
I1
sS'101010110110'
p1835
I1
sS'111011001110'
p1836
I0
sS'100111101010'
p1837
I0
sS'101000100010'
p1838
I0
sS'101000100011'
p1839
I1
sS'001000101001'
p1840
I1
sS'001000101000'
p1841
I0
sS'011001001000'
p1842
I0
sS'011001001001'
p1843
I1
sS'101011111110'
p1844
I0
sS'111110110100'
p1845
I0
sS'011110011111'
p1846
I1
sS'001001010001'
p1847
I0
sS'001001010000'
p1848
I1
sS'000111001011'
p1849
I1
sS'000111001010'
p1850
I0
sS'001111111001'
p1851
I0
sS'001111111000'
p1852
I1
sS'101111001110'
p1853
I0
sS'101111001111'
p1854
I0
sS'000101001111'
p1855
I0
sS'110101001111'
p1856
I0
sS'110101001110'
p1857
I0
sS'101011010110'
p1858
I0
sS'101110010011'
p1859
I0
sS'001100110000'
p1860
I0
sS'001100110001'
p1861
I1
sS'111110110101'
p1862
I1
sS'011101110101'
p1863
I0
sS'101100110001'
p1864
I0
sS'011001010100'
p1865
I1
sS'110011100111'
p1866
I1
sS'000001001101'
p1867
I0
sS'001001000101'
p1868
I0
sS'001001000100'
p1869
I1
sS'000110011000'
p1870
I0
sS'000110011001'
p1871
I1
sS'111000010010'
p1872
I0
sS'110100100101'
p1873
I1
sS'110100100100'
p1874
I0
sS'010101110110'
p1875
I1
sS'110101010100'
p1876
I0
sS'010010000101'
p1877
I0
sS'010010000100'
p1878
I1
sS'111110100011'
p1879
I0
sS'001100101011'
p1880
I0
sS'001100101010'
p1881
I1
sS'010000110100'
p1882
I0
sS'010000110101'
p1883
I1
sS'100100101110'
p1884
I1
sS'100100101111'
p1885
I0
sS'100001001010'
p1886
I0
sS'100001001011'
p1887
I1
sS'000000111100'
p1888
I0
sS'000000111101'
p1889
I1
sS'000100010110'
p1890
I0
sS'000100010111'
p1891
I1
sS'111010000110'
p1892
I0
sS'111010000111'
p1893
I1
sS'110001011110'
p1894
I0
sS'111111100110'
p1895
I0
sS'000001100110'
p1896
I0
sS'000001100111'
p1897
I1
sS'011101101101'
p1898
I0
sS'011101101100'
p1899
I0
sS'010101110011'
p1900
I1
sS'010110010011'
p1901
I1
sS'010110010010'
p1902
I0
sS'110111001000'
p1903
I0
sS'110111001001'
p1904
I1
sS'000010010110'
p1905
I1
sS'000010010111'
p1906
I0
sS'110001011111'
p1907
I0
sS'111011101011'
p1908
I1
sS'111100011110'
p1909
I0
sS'011001101011'
p1910
I1
sS'110011010001'
p1911
I1
sS'110011010000'
p1912
I0
sS'100100011000'
p1913
I0
sS'100100011001'
p1914
I1
sS'000100001101'
p1915
I1
sS'000100001100'
p1916
I1
sS'111000100011'
p1917
I1
sS'111000100010'
p1918
I0
sS'101001110001'
p1919
I0
sS'001101011111'
p1920
I0
sS'001011000011'
p1921
I0
sS'101101101000'
p1922
I0
sS'101101101001'
p1923
I1
sS'111110111001'
p1924
I0
sS'011010101100'
p1925
I0
sS'011010101101'
p1926
I0
sS'101101111010'
p1927
I0
sS'110010111000'
p1928
I1
sS'110010111001'
p1929
I0
sS'101111010110'
p1930
I1
sS'101111010111'
p1931
I0
sS'101000000110'
p1932
I0
sS'101000000111'
p1933
I1
sS'011100001110'
p1934
I1
sS'110001010000'
p1935
I0
sS'110001010001'
p1936
I1
sS'011100001111'
p1937
I1
sS'000101110011'
p1938
I0
sS'011010110111'
p1939
I0
sS'011010110110'
p1940
I1
sS'101101111011'
p1941
I1
sS'010011010111'
p1942
I1
sS'100101010011'
p1943
I1
sS'100101010010'
p1944
I0
sS'010101111101'
p1945
I0
sS'011101110100'
p1946
I1
sS'011101111101'
p1947
I1
sS'111111001100'
p1948
I0
sS'111111001101'
p1949
I0
sS'111100110100'
p1950
I1
sS'101000011101'
p1951
I1
sS'101000011100'
p1952
I0
sS'010110100010'
p1953
I0
sS'100000101111'
p1954
I1
sS'010000101100'
p1955
I1
sS'010000101101'
p1956
I1
sS'111100000100'
p1957
I1
sS'010001111100'
p1958
I0
sS'010001111101'
p1959
I1
sS'101110001010'
p1960
I1
sS'101110001011'
p1961
I0
sS'101011011110'
p1962
I0
sS'110101111110'
p1963
I0
sS'110110111100'
p1964
I0
sS'110110111101'
p1965
I1
sS'001000110100'
p1966
I0
sS'001000110101'
p1967
I1
sS'011110001001'
p1968
I1
sS'011110001000'
p1969
I0
sS'110111010000'
p1970
I0
sS'110111010001'
p1971
I1
sS'001110101111'
p1972
I0
sS'001110101110'
p1973
I1
sS'101010011010'
p1974
I1
sS'101010011011'
p1975
I0
sS'011010010110'
p1976
I1
sS'011010010111'
p1977
I0
sS'101011011111'
p1978
I0
sS'100010001100'
p1979
I0
sS'100010001101'
p1980
I0
sS'010001100111'
p1981
I0
sS'010001100110'
p1982
I1
sS'110100001110'
p1983
I0
sS'101110010000'
p1984
I0
sS'000101111011'
p1985
I1
sS'001011000001'
p1986
I1
sS'001011000000'
p1987
I0
sS'011111101001'
p1988
I1
sS'011111101000'
p1989
I0
sS'100110101100'
p1990
I1
sS'111000110010'
p1991
I1
sS'000110111101'
p1992
I0
sS'000101001010'
p1993
I0
sS'000101001011'
p1994
I1
sS'101101110000'
p1995
I0
sS'100011000110'
p1996
I0
sS'110000100110'
p1997
I0
sS'110101101110'
p1998
I0
sS'001110111100'
p1999
I1
sS'110100111000'
p2000
I1
sS'110100111001'
p2001
I0
sS'101100011011'
p2002
I1
sS'111000110001'
p2003
I1
sS'111000110000'
p2004
I0
sS'001010001111'
p2005
I0
sS'001010001110'
p2006
I0
sS'011101100111'
p2007
I0
sS'100010101111'
p2008
I0
sS'011101100110'
p2009
I1
sS'100110110111'
p2010
I1
sS'100110110110'
p2011
I0
sS'100101101010'
p2012
I1
sS'100101101011'
p2013
I0
sS'010010011011'
p2014
I0
sS'010010011010'
p2015
I1
sS'111110101110'
p2016
I0
sS'011001100011'
p2017
I0
sS'011001100010'
p2018
I0
sS'001000011010'
p2019
I0
sS'001000011011'
p2020
I1
sS'101001110100'
p2021
I0
sS'101001110101'
p2022
I1
sS'011000111010'
p2023
I0
sS'011000111011'
p2024
I1
sS'110111101101'
p2025
I0
sS'110010101111'
p2026
I0
sS'110010101110'
p2027
I0
sS'110110001100'
p2028
I0
sS'110110001101'
p2029
I0
sS'111100000000'
p2030
I0
sS'111100000001'
p2031
I1
sS'111110011110'
p2032
I0
sS'101110000011'
p2033
I1
sS'101110000010'
p2034
I1
sS'100101000001'
p2035
I1
sS'100101000000'
p2036
I0
sS'111101000001'
p2037
I1
sS'000010011101'
p2038
I1
sS'101011001001'
p2039
I1
sS'101011001000'
p2040
I0
sS'100011110001'
p2041
I1
sS'100011110000'
p2042
I0
sS'111010111110'
p2043
I0
sS'010101011011'
p2044
I1
sS'000111010000'
p2045
I1
sS'000111010001'
p2046
I0
sS'111101111101'
p2047
I0
sS'111101111100'
p2048
I0
sS'011110101001'
p2049
I1
sS'100001111100'
p2050
I0
sS'010101100100'
p2051
I1
sS'101100000100'
p2052
I0
sS'101100000101'
p2053
I1
sS'110001101001'
p2054
I1
sS'110001101000'
p2055
I0
sS'000111000010'
p2056
I0
sS'000111000011'
p2057
I0
sS'110000111001'
p2058
I0
sS'110000111000'
p2059
I1
sS'110100010110'
p2060
I1
sS'110100010111'
p2061
I0
sS'011110011011'
p2062
I0
sS'111011111000'
p2063
I0
sS'111011111001'
p2064
I1
sS'010111000110'
p2065
I0
sS'010111000111'
p2066
I1
sS'111100010010'
p2067
I0
sS'111100010011'
p2068
I1
sS'011110111010'
p2069
I0
sS'011010001101'
p2070
I0
sS'011010001100'
p2071
I0
sS'100010010111'
p2072
I0
sS'100010010110'
p2073
I1
sS'100110110011'
p2074
I0
sS'010010101011'
p2075
I0
sS'001101110110'
p2076
I1
sS'110010010110'
p2077
I1
sS'000001000000'
p2078
I1
sS'011011111100'
p2079
I0
sS'100001100111'
p2080
I1
sS'100001100110'
p2081
I0
sS'011110011010'
p2082
I1
sS'011110011101'
p2083
I1
sS'011011111101'
p2084
I0
sS'011110011100'
p2085
I0
sS'101100101001'
p2086
I0
sS'101100101000'
p2087
I1
sS'011110111011'
p2088
I1
sS'101001001110'
p2089
I0
sS'101001001111'
p2090
I0
sS'001110011101'
p2091
I0
sS'011011000011'
p2092
I0
sS'011011000010'
p2093
I0
sS'000010111110'
p2094
I0
sS'000010111111'
p2095
I1
sS'101110110000'
p2096
I0
sS'101110110001'
p2097
I1
sS'001100100010'
p2098
I0
sS'001100100011'
p2099
I1
sS'111101101111'
p2100
I0
sS'111101101110'
p2101
I0
sS'011011010001'
p2102
I1
sS'011011010000'
p2103
I0
sS'111000010000'
p2104
I1
sS'111000010001'
p2105
I0
sS'110001110100'
p2106
I0
sS'110001110101'
p2107
I1
sS'101110101111'
p2108
I1
sS'010101111100'
p2109
I0
sS'101001101100'
p2110
I0
sS'100101110000'
p2111
I0
sS'000000100111'
p2112
I0
sS'000000100110'
p2113
I0
sS'000100100000'
p2114
I0
sS'000100100001'
p2115
I1
sS'101110101011'
p2116
I0
sS'111011000100'
p2117
I0
sS'000101110000'
p2118
I0
sS'000101110001'
p2119
I1
sS'000100111011'
p2120
I0
sS'000100111010'
p2121
I1
sS'010111111100'
p2122
I0
sS'110000100100'
p2123
I0
sS'111000001010'
p2124
I0
sS'110011001001'
p2125
I1
sS'110011001000'
p2126
I0
sS'101010110100'
p2127
I0
sS'111011010111'
p2128
I1
sS'100011101001'
p2129
I1
sS'100011101000'
p2130
I0
sS'010110000001'
p2131
I1
sS'010110000000'
p2132
I0
sS'100010111001'
p2133
I0
sS'100010111000'
p2134
I1
sS'001011001001'
p2135
I1
sS'101111101101'
p2136
I0
sS'101010110101'
p2137
I1
sS'010111110010'
p2138
I0
sS'111011100011'
p2139
I0
sS'001101000111'
p2140
I0
sS'001101000110'
p2141
I1
sS'000111011010'
p2142
I1
sS'111011100010'
p2143
I0
sS'000101010100'
p2144
I0
sS'000101010101'
p2145
I1
sS'011001010000'
p2146
I0
sS'011001010001'
p2147
I1
sS'101000100001'
p2148
I0
sS'101000100000'
p2149
I0
sS'011001001011'
p2150
I0
sS'011001001010'
p2151
I1
sS'011001000010'
p2152
I0
sS'011001000011'
p2153
I1
sS'011111111110'
p2154
I0
sS'011111111111'
p2155
I1
sS'011111100101'
p2156
I0
sS'101111001101'
p2157
I0
sS'101111001100'
p2158
I0
sS'000110000000'
p2159
I1
sS'000110000001'
p2160
I0
sS'110101011000'
p2161
I0
sS'110101011001'
p2162
I1
sS'111110100010'
p2163
I0
sS'010111010011'
p2164
I0
sS'101111111000'
p2165
I1
sS'001100110011'
p2166
I0
sS'001100110010'
p2167
I1
sS'110110101000'
p2168
I0
sS'110110101001'
p2169
I1
sS'001100111010'
p2170
I0
sS'001100111011'
p2171
I1
sS'111001011110'
p2172
I0
sS'111001011111'
p2173
I0
sS'111100111010'
p2174
I0
sS'101111111100'
p2175
I0
sS'011000100100'
p2176
I0
sS'011000100101'
p2177
I1
sS'110011010100'
p2178
I0
sS'110011010101'
p2179
I0
sS'000110011011'
p2180
I1
sS'000110011010'
p2181
I0
sS'011110100111'
p2182
I0
sS'011110100110'
p2183
I1
sS'010000110111'
p2184
I0
sS'010000110110'
p2185
I1
sS'001000101100'
p2186
I0
sS'001000101101'
p2187
I0
sS'100001001001'
p2188
I1
sS'100001001000'
p2189
I0
sS'010101000010'
p2190
I0
sS'010101000011'
p2191
I1
sS'000100010101'
p2192
I0
sS'000100010100'
p2193
I1
sS'100010100100'
p2194
I0
sS'100010100101'
p2195
I0
sS'001011110101'
p2196
I1
sS'000000111111'
p2197
I0
sS'000000111110'
p2198
I1
sS'001001010100'
p2199
I0
sS'111010000100'
p2200
I0
sS'000001100101'
p2201
I0
sS'000001100100'
p2202
I1
sS'110111001011'
p2203
I1
sS'110111001010'
p2204
I0
sS'100100111001'
p2205
I1
sS'000010010101'
p2206
I1
sS'000010010100'
p2207
I0
sS'011111100011'
p2208
I0
sS'011111100010'
p2209
I0
sS'000110000011'
p2210
I1
sS'101011011010'
p2211
I0
sS'111011001100'
p2212
I0
sS'100100011011'
p2213
I1
sS'000110000010'
p2214
I1
sS'001011111111'
p2215
I1
sS'110100100000'
p2216
I0
sS'110100100001'
p2217
I0
sS'010101100101'
p2218
I0
sS'010010000000'
p2219
I0
sS'010010000001'
p2220
I1
sS'101101101011'
p2221
I0
sS'101101101010'
p2222
I1
sS'011000010010'
p2223
I0
sS'011000010011'
p2224
I1
sS'101101100010'
p2225
I0
sS'101101100011'
p2226
I1
sS'011010101111'
p2227
I0
sS'011010101110'
p2228
I0
sS'010010010010'
p2229
I0
sS'010010010011'
p2230
I1
sS'111100110110'
p2231
I0
sS'011111100110'
p2232
I0
sS'011111100111'
p2233
I1
sS'110000001010'
p2234
I0
sS'110000001011'
p2235
I1
sS'111110101101'
p2236
I0
sS'011101101000'
p2237
I0
sS'011101101001'
p2238
I1
sS'101000000101'
p2239
I0
sS'101000000100'
p2240
I1
sS'110010111011'
p2241
I0
sS'110010111010'
p2242
I1
sS'110001010011'
p2243
I0
sS'110001010010'
p2244
I0
sS'101111010101'
p2245
I1
sS'101111010100'
p2246
I0
sS'111101001110'
p2247
I0
sS'111101001111'
p2248
I0
sS'111001101111'
p2249
I0
sS'011110111110'
p2250
I1
sS'110001011010'
p2251
I0
sS'110001011011'
p2252
I1
sS'011110001100'
p2253
I0
sS'011110001101'
p2254
I0
sS'100111011110'
p2255
I0
sS'000100001000'
p2256
I1
sS'000100001001'
p2257
I0
sS'000001111000'
p2258
I0
sS'000001111001'
p2259
I1
sS'000010110111'
p2260
I0
sS'111111001111'
p2261
I0
sS'111111001110'
p2262
I0
sS'101110001001'
p2263
I0
sS'101110001000'
p2264
I1
sS'010000101111'
p2265
I0
sS'010000101110'
p2266
I1
sS'010100011110'
p2267
I0
sS'010100011111'
p2268
I1
sS'010001111111'
p2269
I0
sS'010001111110'
p2270
I1
sS'110110111111'
p2271
I1
sS'110110111110'
p2272
I0
sS'101011010001'
p2273
I1
sS'101011010000'
p2274
I0
sS'110111010011'
p2275
I0
sS'110111010010'
p2276
I0
sS'111100001010'
p2277
I0
sS'101010011000'
p2278
I1
sS'001011011000'
p2279
I0
sS'000010000010'
p2280
I0
sS'000010000011'
p2281
I0
sS'001011110011'
p2282
I1
sS'100010001111'
p2283
I0
sS'100010001110'
p2284
I0
sS'010101110100'
p2285
I0
sS'110100001101'
p2286
I0
sS'110100001100'
p2287
I0
sS'110110101011'
p2288
I1
sS'111011011100'
p2289
I0
sS'110110101010'
p2290
I0
sS'011110111111'
p2291
I0
sS'101000011000'
p2292
I1
sS'101000011001'
p2293
I0
sS'110011111110'
p2294
I0
sS'011100000010'
p2295
I1
sS'011100000011'
p2296
I1
sS'001011100101'
p2297
I0
sS'001011100100'
p2298
I0
sS'000101001001'
p2299
I1
sS'000101001000'
p2300
I0
sS'110100111011'
p2301
I1
sS'110100111010'
p2302
I0
sS'110101101101'
p2303
I0
sS'110101101100'
p2304
I0
sS'111100110111'
p2305
I1
sS'010010001010'
p2306
I0
sS'010010001011'
p2307
I1
sS'011101110000'
p2308
I0
sS'101001100101'
p2309
I0
sS'110000111010'
p2310
I0
sS'000001010110'
p2311
I0
sS'101001100100'
p2312
I0
sS'110010001110'
p2313
I0
sS'110010001111'
p2314
I0
sS'110000111011'
p2315
I1
sS'101111111010'
p2316
I1
sS'001110001110'
p2317
I1
sS'001110001111'
p2318
I1
sS'100101101001'
p2319
I1
sS'100101101000'
p2320
I0
sS'000110101110'
p2321
I1
sS'000110101111'
p2322
I1
sS'101110010100'
p2323
I1
sS'101110010101'
p2324
I0
sS'111000000010'
p2325
I0
sS'111000000011'
p2326
I0
sS'001000011001'
p2327
I1
sS'001000011000'
p2328
I0
sS'001101100110'
p2329
I0
sS'001011000100'
p2330
I0
sS'001011000101'
p2331
I0
sS'001001111010'
p2332
I0
sS'010100110110'
p2333
I0
sS'101111101100'
p2334
I0
sS'011000111001'
p2335
I0
sS'011000111000'
p2336
I1
sS'110110001111'
p2337
I0
sS'110110001110'
p2338
I0
sS'111100000011'
p2339
I0
sS'111100000010'
p2340
I0
sS'001110111000'
p2341
I0
sS'001110111001'
p2342
I1
sS'001101100111'
p2343
I1
sS'111010011101'
p2344
I1
sS'111010011100'
p2345
I0
sS'000111010011'
p2346
I1
sS'000111010010'
p2347
I0
sS'110011010110'
p2348
I0
sS'100001111111'
p2349
I1
sS'100001111110'
p2350
I0
sS'101001011110'
p2351
I0
sS'111110111110'
p2352
I0
sS'101100000111'
p2353
I0
sS'101100000110'
p2354
I1
sS'000111000001'
p2355
I1
sS'000111000000'
p2356
I0
sS'111011111011'
p2357
I1
sS'111011111010'
p2358
I0
sS'110100010101'
p2359
I1
sS'110100010100'
p2360
I0
sS'111100010001'
p2361
I0
sS'111100010000'
p2362
I1
sS'101001010110'
p2363
I0
sS'101001010111'
p2364
I1
sS'010111000101'
p2365
I0
sS'010111000100'
p2366
I0
sS'001000101111'
p2367
I0
sS'000010100110'
p2368
I0
sS'000010100111'
p2369
I1
sS'001000101110'
p2370
I0
sS'110010010101'
p2371
I1
sS'110010010100'
p2372
I0
sS'101110100101'
p2373
I1
sS'100010010101'
p2374
I1
sS'100101110100'
p2375
I1
sS'100101110101'
p2376
I0
sS'110011110011'
p2377
I0
sS'101001110111'
p2378
I0
sS'101101011111'
p2379
I1
sS'101011001100'
p2380
I0
sS'101011001101'
p2381
I0
sS'101001001101'
p2382
I0
sS'101001001100'
p2383
I0
sS'001000000100'
p2384
I0
sS'001000000101'
p2385
I0
sS'001100100001'
p2386
I0
sS'001100100000'
p2387
I1
sS'000010111101'
p2388
I1
sS'000010111100'
p2389
I0
sS'111101111000'
p2390
I0
sS'111101111001'
p2391
I1
sS'011011001001'
p2392
I1
sS'011011001000'
p2393
I0
sS'010101100000'
p2394
I0
sS'010101100001'
p2395
I1
sS'010010110101'
p2396
I0
sS'000100101010'
p2397
I0
sS'000001001100'
p2398
I0
sS'110001110111'
p2399
I0
sS'110001110110'
p2400
I1
sS'111000011010'
p2401
I1
sS'111000011011'
p2402
I0
sS'101010000100'
p2403
I0
sS'101010000101'
p2404
I0
sS'011010001000'
p2405
I0
sS'011010001001'
p2406
I1
sS'010010110110'
p2407
I0
sS'101001101111'
p2408
I0
sS'101001101110'
p2409
I0
sS'010011010110'
p2410
I0
sS'000101110010'
p2411
I1
sS'010100101000'
p2412
I0
sS'101011100001'
p2413
I1
sS'001111100111'
p2414
I0
sS'001111100110'
p2415
I1
sS'000101111010'
p2416
I0
sS'010100101001'
p2417
I1
sS'000100110001'
p2418
I0
sS'000100110000'
p2419
I1
sS'101100101100'
p2420
I1
sS'101100101101'
p2421
I1
sS'111011010101'
p2422
I0
sS'111011010100'
p2423
I0
sS'110101111001'
p2424
I1
sS'101100011111'
p2425
I0
sS'110101111000'
p2426
I0
sS'101100011110'
p2427
I1
sS'011001011010'
p2428
I0
sS'011001011011'
p2429
I1
sS'011011010100'
p2430
I0
sS'011011010101'
p2431
I0
sS'010001001111'
p2432
I0
sS'000111011001'
p2433
I0
sS'000111011000'
p2434
I1
sS'111111111100'
p2435
I0
sS'110000100000'
p2436
I0
sS'000011001111'
p2437
I0
sS'000101010111'
p2438
I0
sS'000101010110'
p2439
I1
sS'000011001110'
p2440
I0
sS'010111010010'
p2441
I0
sS'001001101011'
p2442
I0
sS'100001010100'
p2443
I0
sS'100001010101'
p2444
I0
sS'011101000111'
p2445
I1
sS'011111111101'
p2446
I0
sS'011111111100'
p2447
I0
sS'001011100111'
p2448
I1
sS'011001000001'
p2449
I0
sS'011001000000'
p2450
I1
sS'010100100010'
p2451
I0
sS'010100100011'
p2452
I1
sS'101011101110'
p2453
I0
sS'110011001100'
p2454
I0
sS'110011001101'
p2455
I0
sS'001010101110'
p2456
I0
sS'110101011011'
p2457
I1
sS'110101011010'
p2458
I0
sS'011010111010'
p2459
I1
sS'100011101100'
p2460
I0
sS'100011101101'
p2461
I0
sS'100111111001'
p2462
I0
sS'111111011001'
p2463
I1
sS'100010111100'
p2464
I0
sS'100010111101'
p2465
I1
sS'111001000110'
p2466
I0
sS'111001000111'
p2467
I1
sS'001100111001'
p2468
I0
sS'001100111000'
p2469
I1
sS'111001011101'
p2470
I0
sS'111001011100'
p2471
I0
sS'110011111100'
p2472
I0
sS'010110101101'
p2473
I0
sS'000100100011'
p2474
I0
sS'000100100010'
p2475
I1
sS'011000100111'
p2476
I0
sS'011000100110'
p2477
I0
sS'010100000110'
p2478
I0
sS'010100000111'
p2479
I1
sS'111011001000'
p2480
I0
sS'110000111100'
p2481
I0
sS'100100110101'
p2482
I1
sS'100100110100'
p2483
I0
sS'010101000001'
p2484
I0
sS'010101000000'
p2485
I1
sS'101000100100'
p2486
I0
sS'101000100101'
p2487
I1
sS'100010100111'
p2488
I1
sS'100010100110'
p2489
I0
sS'000011111000'
p2490
I0
sS'100111011010'
p2491
I1
sS'001001010111'
p2492
I0
sS'001001010110'
p2493
I1
sS'011001010111'
p2494
I1
sS'111100001110'
p2495
I0
sS'101111001000'
p2496
I0
sS'101111001001'
p2497
I1
sS'110000111101'
p2498
I1
sS'111100001011'
p2499
I1
sS'011110011001'
p2500
I0
sS'001111111110'
p2501
I1
sS'010011001101'
p2502
I0
sS'010011001100'
p2503
I0
sS'011000001010'
p2504
I0
sS'011000001011'
p2505
I1
sS'011011011010'
p2506
I0
sS'001011011111'
p2507
I0
sS'011001010011'
p2508
I0
sS'011001010010'
p2509
I0
sS'011100011010'
p2510
I0
sS'111010111000'
p2511
I1
sS'000100000111'
p2512
I0
sS'111101101101'
p2513
I0
sS'110011111001'
p2514
I1
sS'101000010010'
p2515
I0
sS'000100000110'
p2516
I1
sS'010010000011'
p2517
I0
sS'010010000010'
p2518
I0
sS'110100100011'
p2519
I1
sS'110100100010'
p2520
I0
sS'100001001100'
p2521
I0
sS'100001001101'
p2522
I0
sS'011000010001'
p2523
I0
sS'011000010000'
p2524
I1
sS'000100010000'
p2525
I0
sS'000100010001'
p2526
I1
sS'100100101000'
p2527
I1
sS'100100101001'
p2528
I0
sS'110000001001'
p2529
I1
sS'110000001000'
p2530
I0
sS'010010010001'
p2531
I0
sS'010010010000'
p2532
I1
sS'111010101110'
p2533
I0
sS'011101101010'
p2534
I1
sS'000111110010'
p2535
I0
sS'011111100100'
p2536
I0
sS'101100110111'
p2537
I0
sS'000001100000'
p2538
I0
sS'000001100001'
p2539
I1
sS'111101010110'
p2540
I0
sS'101100110110'
p2541
I1
sS'111101001101'
p2542
I0
sS'111101001100'
p2543
I0
sS'110001011001'
p2544
I1
sS'110001011000'
p2545
I0
sS'000100001011'
p2546
I0
sS'000100001010'
p2547
I1
sS'101101101101'
p2548
I0
sS'101101101111'
p2549
I1
sS'010111111010'
p2550
I0
sS'000001111011'
p2551
I0
sS'000001111010'
p2552
I1
sS'001011011010'
p2553
I0
sS'010101110111'
p2554
I0
sS'010101011001'
p2555
I1
sS'010101011000'
p2556
I0
sS'010100011101'
p2557
I1
sS'010100011100'
p2558
I0
sS'011011110011'
p2559
I0
sS'011011110010'
p2560
I0
sS'101000000000'
p2561
I0
sS'101000000001'
p2562
I1
sS'111011100101'
p2563
I0
sS'101111010000'
p2564
I1
sS'101111010001'
p2565
I0
sS'011011111010'
p2566
I0
sS'111011100100'
p2567
I0
sS'010111100001'
p2568
I1
sS'111100001001'
p2569
I1
sS'111100001000'
p2570
I0
sS'000010000001'
p2571
I1
sS'010000011101'
p2572
I0
sS'011110111100'
p2573
I0
sS'110000010100'
p2574
I0
sS'110000010101'
p2575
I1
sS'011010111111'
p2576
I1
sS'101000011011'
p2577
I0
sS'101000011010'
p2578
I1
sS'001010111101'
p2579
I1
sS'110101110101'
p2580
I1
sS'110101110100'
p2581
I0
sS'011100000001'
p2582
I0
sS'011100000000'
p2583
I1
sS'101110001100'
p2584
I1
sS'101110001101'
p2585
I1
sS'001011111101'
p2586
I0
sS'001011111100'
p2587
I0
sS'000110110110'
p2588
I0
sS'000110110111'
p2589
I1
sS'010010001001'
p2590
I1
sS'010010001000'
p2591
I0
sS'011110001111'
p2592
I0
sS'011110001110'
p2593
I0
sS'101011010100'
p2594
I0
sS'101011010101'
p2595
I0
sS'111111010101'
p2596
I0
sS'111100100011'
p2597
I1
sS'110010001101'
p2598
I0
sS'110010001100'
p2599
I0
sS'101010011100'
p2600
I0
sS'101010011101'
p2601
I1
sS'010101101010'
p2602
I0
sS'010101101011'
p2603
I1
sS'011010010000'
p2604
I1
sS'011010010001'
p2605
I0
sS'001110010110'
p2606
I0
sS'001110010111'
p2607
I1
sS'101111100000'
p2608
I0
sS'110100001000'
p2609
I0
sS'110100001001'
p2610
I1
sS'011001110010'
p2611
I0
sS'001110001100'
p2612
I1
sS'111000000001'
p2613
I1
sS'111000000000'
p2614
I0
sS'000110101101'
p2615
I1
sS'000110101100'
p2616
I1
sS'001011000111'
p2617
I1
sS'001011000110'
p2618
I0
sS'001001111001'
p2619
I0
sS'001001111000'
p2620
I1
sS'001011100000'
p2621
I0
sS'001011100001'
p2622
I1
sS'000101100010'
p2623
I0
sS'000101100011'
p2624
I1
sS'001001100010'
p2625
I0
sS'001001100011'
p2626
I1
sS'000000100000'
p2627
I0
sS'101110101000'
p2628
I1
sS'110101101000'
p2629
I0
sS'110101101001'
p2630
I1
sS'110010010000'
p2631
I1
sS'110010010001'
p2632
I0
sS'101110101001'
p2633
I0
sS'100111110001'
p2634
I0
sS'001010110110'
p2635
I0
sS'001010110111'
p2636
I1
sS'111111010010'
p2637
I0
sS'111111010011'
p2638
I0
sS'011101101011'
p2639
I0
sS'100101101100'
p2640
I0
sS'100101101101'
p2641
I0
sS'101001010101'
p2642
I0
sS'101001010100'
p2643
I0
sS'001000011100'
p2644
I0
sS'001000011101'
p2645
I0
sS'000111110011'
p2646
I1
sS'000010100101'
p2647
I0
sS'000010100100'
p2648
I0
sS'101111101110'
p2649
I0
sS'001110110111'
p2650
I0
sS'010010001111'
p2651
I0
sS'001110110110'
p2652
I1
sS'011110111001'
p2653
I0
sS'010010001110'
p2654
I0
sS'000001010101'
p2655
I0
sS'000001010100'
p2656
I1
sS'011110111000'
p2657
I1
sS'011011110001'
p2658
I1
sS'010110001011'
p2659
I1
sS'100101110111'
p2660
I1
sS'100101110110'
p2661
I0
sS'111000001001'
p2662
I1
sS'111010011000'
p2663
I1
sS'111010011001'
p2664
I0
sS'001000000111'
p2665
I1
sS'101011100000'
p2666
I0
sS'101010011001'
p2667
I0
sS'101011001110'
p2668
I0
sS'111101010111'
p2669
I1
sS'010101100011'
p2670
I0
sS'010101100010'
p2671
I0
sS'111101111011'
p2672
I0
sS'111101111010'
p2673
I1
sS'101101010010'
p2674
I0
sS'101101010011'
p2675
I1
sS'000100101001'
p2676
I0
sS'000100101000'
p2677
I1
sS'000111000100'
p2678
I0
sS'000111000101'
p2679
I0
sS'110100010000'
p2680
I1
sS'110100010001'
p2681
I0
sS'111100010100'
p2682
I0
sS'101010000110'
p2683
I0
sS'111000011001'
p2684
I0
sS'010101110000'
p2685
I1
sS'011010001011'
p2686
I1
sS'011010001010'
p2687
I0
sS'000011111010'
p2688
I0
sS'010011010101'
p2689
I0
sS'010011010100'
p2690
I0
sS'000101111001'
p2691
I0
sS'000101111000'
p2692
I1
sS'101111011010'
p2693
I1
sS'010110100001'
p2694
I1
sS'111110100101'
p2695
I0
sS'100011101011'
p2696
I1
sS'000011111011'
p2697
I1
sS'111110100100'
p2698
I0
sS'100110011111'
p2699
I0
sS'101001001000'
p2700
I0
sS'101001001001'
p2701
I1
sS'100110011110'
p2702
I1
sS'001100100100'
p2703
I0
sS'001100100101'
p2704
I1
sS'000010111000'
p2705
I1
sS'000010111001'
p2706
I0
sS'011001011001'
p2707
I1
sS'011001011000'
p2708
I0
sS'001011111001'
p2709
I1
sS'100000111110'
p2710
I1
sS'100000111111'
p2711
I0
sS'100010111011'
p2712
I0
sS'011011010111'
p2713
I1
sS'011011010110'
p2714
I0
sS'111111111111'
p2715
I0
sS'111111111110'
p2716
I0
sS'000001001000'
p2717
I0
sS'000001001001'
p2718
I1
sS'001110111110'
p2719
I0
sS'100001010111'
p2720
I1
sS'100001010110'
p2721
I0
sS'010111010001'
p2722
I1
sS'010111010000'
p2723
I0
sS'110001111101'
p2724
I0
sS'101111110010'
p2725
I0
sS'101111110011'
p2726
I1
sS'001110001011'
p2727
I0
sS'110011001111'
p2728
I0
sS'110011001110'
p2729
I0
sS'010100100001'
p2730
I0
sS'010100100000'
p2731
I0
sS'000100110100'
p2732
I0
sS'000100110101'
p2733
I1
sS'111011010000'
p2734
I0
sS'111011010001'
p2735
I1
sS'110011011111'
p2736
I0
sS'100011101111'
p2737
I0
sS'100011101110'
p2738
I0
sS'111001000101'
p2739
I0
sS'111001000100'
p2740
I0
sS'100010111111'
p2741
I1
sS'100010111110'
p2742
I0
sS'010011101111'
p2743
I0
sS'000111011100'
p2744
I0
sS'000111011101'
p2745
I1
sS'010100110101'
p2746
I0
sS'010100110100'
p2747
I1
sS'111011001011'
p2748
I1
sS'111011001010'
p2749
I0
sS'101000100111'
p2750
I0
sS'101000100110'
p2751
I0
sS'111011000010'
p2752
I0
sS'111011000011'
p2753
I0
sS'011111111000'
p2754
I0
sS'011111111001'
p2755
I1
sS'011001000100'
p2756
I0
sS'011001000101'
p2757
I1
sS'101111001011'
p2758
I1
sS'101111001010'
p2759
I0
sS'001011011110'
p2760
I0
sS'011000001001'
p2761
I1
sS'011000001000'
p2762
I0
sS'000000011110'
p2763
I0
sS'000000011111'
p2764
I1
sS'100011010111'
p2765
I1
sS'011100111101'
p2766
I0
sS'001100111100'
p2767
I0
sS'011100111100'
p2768
I1
sS'000011101110'
p2769
I0
sS'000011101111'
p2770
I0
sS'111001011000'
p2771
I0
sS'111001011001'
p2772
I1
sS'111110100000'
p2773
I0
sS'111110100001'
p2774
I1
sS'000011011110'
p2775
I0
sS'000011011111'
p2776
I0
sS'101000010001'
p2777
I0
sS'101000010000'
p2778
I1
sS'110101000001'
p2779
I1
sS'100100110000'
p2780
I1
sS'100100110001'
p2781
I0
sS'111011001111'
p2782
I0
sS'010101000100'
p2783
I0
sS'010101000101'
p2784
I1
sS'100100101011'
p2785
I1
sS'100100101010'
p2786
I0
sS'100001001111'
p2787
I0
sS'100001001110'
p2788
I0
sS'010111011110'
p2789
I0
sS'000100010011'
p2790
I0
sS'000100010010'
p2791
I1
sS'000111110001'
p2792
I0
sS'000111110000'
p2793
I1
sS'010111011111'
p2794
I0
sS'000001100011'
p2795
I0
sS'000001100010'
p2796
I0
sS'111010101101'
p2797
I0
sS'111010101100'
p2798
I0
sS'111101010101'
p2799
I0
sS'111101010100'
p2800
I0
sS'011000011011'
p2801
I0
sS'010011001000'
p2802
I0
sS'010011001001'
p2803
I1
sS'011000011010'
p2804
I1
sS'001100001010'
p2805
I0
sS'001100001011'
p2806
I1
sS'110001001110'
p2807
I0
sS'110001001111'
p2808
I0
sS'010100000101'
p2809
I0
sS'010100000100'
p2810
I1
sS'011111001000'
p2811
I0
sS'011111010110'
p2812
I0
sS'011111010111'
p2813
I1
sS'101101001100'
p2814
I0
sS'101011100011'
p2815
I0
sS'011111001001'
p2816
I1
sS'100100000110'
p2817
I1
sS'100100000111'
p2818
I0
sS'100100110111'
p2819
I0
sS'110111100110'
p2820
I0
sS'110111100111'
p2821
I1
sS'100110001110'
p2822
I1
sS'100110001111'
p2823
I1
sS'110111111101'
p2824
I0
sS'110111111100'
p2825
I0
sS'011000010100'
p2826
I0
sS'011000010101'
p2827
I1
sS'100111011101'
p2828
I1
sS'110000001100'
p2829
I0
sS'110000001101'
p2830
I0
sS'010010010100'
p2831
I0
sS'010010010101'
p2832
I1
sS'011111100000'
p2833
I0
sS'011111100001'
p2834
I1
sS'101111010011'
p2835
I1
sS'101111010010'
p2836
I0
sS'101000000011'
p2837
I0
sS'010110101000'
p2838
I0
sS'011011111001'
p2839
I1
sS'011011111000'
p2840
I0
sS'101000001010'
p2841
I0
sS'011100011000'
p2842
I0
sS'111101001000'
p2843
I0
sS'111101001001'
p2844
I1
sS'010000011111'
p2845
I0
sS'010000011110'
p2846
I1
sS'010101111011'
p2847
I0
sS'100111101110'
p2848
I0
sS'100111101111'
p2849
I0
sS'101011111010'
p2850
I0
sS'101011111011'
p2851
I1
sS'110000010111'
p2852
I0
sS'110000010110'
p2853
I1
sS'010111111101'
p2854
I0
sS'110101110111'
p2855
I0
sS'001111011101'
p2856
I1
sS'001111011100'
p2857
I0
sS'011010111101'
p2858
I1
sS'010101111010'
p2859
I1
sS'100101111010'
p2860
I0
sS'011010111100'
p2861
I0
sS'001101100101'
p2862
I0
sS'001111110111'
p2863
I1
sS'000110110101'
p2864
I0
sS'000110110100'
p2865
I1
sS'100111011000'
p2866
I1
sS'101110001110'
p2867
I1
sS'110000011011'
p2868
I0
sS'010100011000'
p2869
I1
sS'010100011001'
p2870
I0
sS'101100011100'
p2871
I1
sS'101100011101'
p2872
I0
sS'101011010111'
p2873
I1
sS'010110101010'
p2874
I0
sS'010110101011'
p2875
I1
sS'100110111010'
p2876
I0
sS'010101101001'
p2877
I1
sS'010101101000'
p2878
I0
sS'001110010101'
p2879
I0
sS'001110010100'
p2880
I1
sS'111100001100'
p2881
I0
sS'111100001101'
p2882
I0
sS'000010000100'
p2883
I0
sS'011010010010'
p2884
I0
sS'011001110001'
p2885
I0
sS'011001110000'
p2886
I1
sS'100000000010'
p2887
I0
sS'100000000011'
p2888
I0
sS'110100001011'
p2889
I1
sS'110100001010'
p2890
I0
sS'110100000010'
p2891
I0
sS'110100000011'
p2892
I0
sS'010110011001'
p2893
I0
sS'010110110100'
p2894
I0
sS'010110110101'
p2895
I1
sS'010111100010'
p2896
I0
sS'010110011000'
p2897
I1
sS'101000010011'
p2898
I1
sS'001011100011'
p2899
I0
sS'001011100010'
p2900
I0
sS'110001011101'
p2901
I0
sS'001001100001'
p2902
I0
sS'001001100000'
p2903
I0
sS'011100000100'
p2904
I0
sS'011100000101'
p2905
I1
sS'011010011100'
p2906
I0
sS'000101100001'
p2907
I0
sS'000101100000'
p2908
I1
sS'001011111000'
p2909
I0
sS'110101101010'
p2910
I0
sS'011100011011'
p2911
I1
sS'011010011101'
p2912
I1
sS'010010001100'
p2913
I0
sS'010010001101'
p2914
I0
sS'100000100110'
p2915
I0
sS'100000100111'
p2916
I0
sS'000001010000'
p2917
I0
sS'000001010001'
p2918
I1
sS'110011111011'
p2919
I1
sS'000010110010'
p2920
I0
sS'000010110011'
p2921
I1
sS'110010001000'
p2922
I0
sS'110010001001'
p2923
I1
sS'101011110100'
p2924
I0
sS'100101101111'
p2925
I1
sS'100101101110'
p2926
I0
sS'110111011101'
p2927
I0
sS'001110001000'
p2928
I1
sS'001110001001'
p2929
I0
sS'111000000100'
p2930
I1
sS'111000000101'
p2931
I0
sS'000110101000'
p2932
I1
sS'000110101001'
p2933
I0
sS'010000011100'
p2934
I1
sS'111110001110'
p2935
I0
sS'111110001111'
p2936
I0
sS'111001001111'
p2937
I0
sS'001000011111'
p2938
I0
sS'000010000000'
p2939
I0
sS'111001001110'
p2940
I0
sS'001001111100'
p2941
I0
sS'001001111101'
p2942
I1
sS'101101001010'
p2943
I0
sS'101101001011'
p2944
I1
sS'111101110110'
p2945
I1
sS'111101101011'
p2946
I1
sS'111010011011'
p2947
I0
sS'111010011010'
p2948
I1
sS'101000110000'
p2949
I0
sS'101000110001'
p2950
I1
sS'101101010001'
p2951
I0
sS'101101010000'
p2952
I1
sS'101100110000'
p2953
I1
sS'000111000111'
p2954
I1
sS'000111000110'
p2955
I0
sS'110100010011'
p2956
I1
sS'110100010010'
p2957
I0
sS'101001010000'
p2958
I0
sS'101001010001'
p2959
I1
sS'110011100110'
p2960
I0
sS'010100110111'
p2961
I1
sS'111100010110'
p2962
I1
sS'000010100000'
p2963
I0
sS'000010100001'
p2964
I1
sS'111001010010'
p2965
I0
sS'110011111000'
p2966
I0
sS'111001101110'
p2967
I0
sS'000010111011'
p2968
I0
sS'000000000110'
p2969
I0
sS'000000000111'
p2970
I1
sS'111100000110'
p2971
I0
sS'101001001011'
p2972
I1
sS'101001001010'
p2973
I0
sS'101011100100'
p2974
I0
sS'101011100101'
p2975
I0
sS'101110010001'
p2976
I1
sS'000010111010'
p2977
I1
sS'111010110110'
p2978
I1
sS'111010110111'
p2979
I0
sS'101111101010'
p2980
I0
sS'101111101011'
p2981
I1
sS'001100100111'
p2982
I0
sS'001100100110'
p2983
I1
sS'010110110001'
p2984
I0
sS'100000111101'
p2985
I1
sS'100000111100'
p2986
I0
sS'000001001011'
p2987
I0
sS'000001001010'
p2988
I1
sS'010110110000'
p2989
I1
sS'111000011100'
p2990
I0
sS'111000011101'
p2991
I1
sS'011110100100'
p2992
I0
sS'111100101110'
p2993
I0
sS'111100101111'
p2994
I1
sS'011110100101'
p2995
I1
sS'101111110001'
p2996
I0
sS'101111110000'
p2997
I1
sS'010011010000'
p2998
I0
sS'010011010001'
p2999
I1
sS'111001110010'
p3000
I0
sS'000101111100'
p3001
I0
sS'000101111101'
p3002
I1
sS'000100110111'
p3003
I0
sS'000100110110'
p3004
I1
sS'100111000101'
p3005
I0
sS'100111000100'
p3006
I0
sS'001110111010'
p3007
I1
sS'011010000111'
p3008
I1
sS'100111001110'
p3009
I0
sS'100000100101'
p3010
I1
sS'011010000110'
p3011
I0
sS'011001011100'
p3012
I0
sS'011001011101'
p3013
I0
sS'000010101011'
p3014
I1
sS'110011101111'
p3015
I0
sS'111000101010'
p3016
I0
sS'111000101011'
p3017
I0
sS'000111011111'
p3018
I1
sS'000111011110'
p3019
I0
sS'101110101110'
p3020
I1
sS'101111100110'
p3021
I0
sS'100011011100'
p3022
I0
sS'100011011101'
p3023
I0
sS'111001110110'
p3024
I1
sS'111001110111'
p3025
I0
sS'101111100111'
p3026
I1
sS'001001110011'
p3027
I0
sS'111011000001'
p3028
I1
sS'111011000000'
p3029
I0
sS'101101111100'
p3030
I0
sS'110001111001'
p3031
I1
sS'000011000110'
p3032
I0
sS'011001000110'
p3033
I1
sS'011111111011'
p3034
I0
sS'010010111110'
p3035
I1
sS'010001000110'
p3036
I0
sS'010001000111'
p3037
I1
sS'011111110010'
p3038
I0
sS'011111110011'
p3039
I1
sS'010100100100'
p3040
I0
sS'010100100101'
p3041
I1
sS'001010100010'
p3042
I0
sS'001010100011'
p3043
I1
sS'000100111111'
p3044
I1
sS'110010011100'
p3045
I0
sS'111001000000'
p3046
I0
sS'111001000001'
p3047
I1
sS'000000011101'
p3048
I1
sS'000000011100'
p3049
I0
sS'001100111111'
p3050
I0
sS'110000101101'
p3051
I0
sS'100101011010'
p3052
I1
sS'100101011011'
p3053
I0
sS'001010011110'
p3054
I0
sS'111001011010'
p3055
I0
sS'110000101100'
p3056
I0
sS'000011101101'
p3057
I0
sS'000011101100'
p3058
I0
sS'010001011101'
p3059
I1
sS'010001011100'
p3060
I0
sS'010100000000'
p3061
I0
sS'010100000001'
p3062
I1
sS'011001101010'
p3063
I0
sS'010110001101'
p3064
I0
sS'101111111101'
p3065
I1
sS'111110111000'
p3066
I1
sS'000101101001'
p3067
I1
sS'100100110011'
p3068
I1
sS'100100110010'
p3069
I0
sS'101100001111'
p3070
I1
sS'010101000111'
p3071
I0
sS'010101000110'
p3072
I1
sS'000111101001'
p3073
I1
sS'000111101000'
p3074
I0
sS'011010111011'
p3075
I0
sS'001110110001'
p3076
I0
sS'110101100011'
p3077
I0
sS'001100001001'
p3078
I1
sS'001100001000'
p3079
I0
sS'010011001011'
p3080
I1
sS'010011001010'
p3081
I0
sS'011000001100'
p3082
I0
sS'011000001101'
p3083
I0
sS'011101110010'
p3084
I1
sS'011111010101'
p3085
I0
sS'011111010100'
p3086
I0
sS'011100011100'
p3087
I1
sS'011100011101'
p3088
I0
sS'101000010100'
p3089
I0
sS'101000010101'
p3090
I1
sS'100100000101'
p3091
I1
sS'100100000100'
p3092
I0
sS'110111100101'
p3093
I0
sS'110111100100'
p3094
I0
sS'011000010111'
p3095
I0
sS'011000010110'
p3096
I1
sS'100110001101'
p3097
I1
sS'100110001100'
p3098
I1
sS'010010010111'
p3099
I0
sS'010010010110'
p3100
I1
sS'000111110100'
p3101
I0
sS'011000110101'
p3102
I0
sS'110000001111'
p3103
I0
sS'110000001110'
p3104
I0
sS'110101000110'
p3105
I0
sS'110101000111'
p3106
I1
sS'111010101000'
p3107
I0
sS'111010101001'
p3108
I1
sS'111101010000'
p3109
I0
sS'111101010001'
p3110
I1
sS'010101111000'
p3111
I0
sS'111101001011'
p3112
I1
sS'111101001010'
p3113
I0
sS'011011101110'
p3114
I0
sS'011011101111'
p3115
I0
sS'000011011101'
p3116
I0
sS'000011011100'
p3117
I0
sS'101000001001'
p3118
I1
sS'101000001000'
p3119
I0
sS'001011110010'
p3120
I0
sS'100111101100'
p3121
I0
sS'011011110110'
p3122
I0
sS'000110100010'
p3123
I1
sS'000110100011'
p3124
I1
sS'100110111110'
p3125
I1
sS'011011110111'
p3126
I1
sS'101110111010'
p3127
I0
sS'100110111111'
p3128
I0
sS'010101111001'
p3129
I1
sS'011101000110'
p3130
I0
sS'000000010100'
p3131
I0
sS'100000001100'
p3132
I0
sS'011101011101'
p3133
I1
sS'011101011100'
p3134
I0
sS'100101011110'
p3135
I0
sS'001100010100'
p3136
I0
sS'001100010101'
p3137
I1
sS'110111111000'
p3138
I0
sS'001011011100'
p3139
I0
sS'011011000110'
p3140
I0
sS'010010110111'
p3141
I1
sS'010100011011'
p3142
I0
sS'010100011010'
p3143
I1
sS'011100100101'
p3144
I0
sS'011100100100'
p3145
I1
sS'111110110110'
p3146
I1
sS'001001011111'
p3147
I1
sS'010110001111'
p3148
I0
sS'101110010111'
p3149
I1
sS'010110101100'
p3150
I0
sS'101110010110'
p3151
I0
sS'101101111111'
p3152
I0
sS'111100001111'
p3153
I0
sS'001110001101'
p3154
I1
sS'001011011101'
p3155
I0
sS'000010000111'
p3156
I1
sS'000010000110'
p3157
I0
sS'011001110011'
p3158
I1
sS'010010101101'
p3159
I0
sS'010010101100'
p3160
I0
sS'111000110011'
p3161
I0
sS'100000000001'
p3162
I1
sS'100000000000'
p3163
I0
sS'111001101000'
p3164
I0
sS'111001101001'
p3165
I1
sS'000100101110'
p3166
I1
sS'001101010110'
p3167
I0
sS'001101010111'
p3168
I1
sS'110100000001'
p3169
I1
sS'110100000000'
p3170
I0
sS'000010001100'
p3171
I0
sS'010111100000'
p3172
I0
sS'010110110111'
p3173
I0
sS'000011100101'
p3174
I0
sS'011100000111'
p3175
I0
sS'011100000110'
p3176
I1
sS'000001111101'
p3177
I0
sS'110101110011'
p3178
I1
sS'110101110010'
p3179
I0
sS'000110110000'
p3180
I0
sS'000110110001'
p3181
I1
sS'101001011001'
p3182
I1
sS'000001111100'
p3183
I0
sS'100111110110'
p3184
I1
sS'010110111011'
p3185
I0
sS'001011111011'
p3186
I0
sS'001011111010'
p3187
I1
sS'111111000111'
p3188
I1
sS'100000010101'
p3189
I1
sS'100000010100'
p3190
I0
sS'000010110001'
p3191
I0
sS'000010110000'
p3192
I1
sS'000001010011'
p3193
I0
sS'000001010010'
p3194
I0
sS'110010001011'
p3195
I1
sS'110010001010'
p3196
I0
sS'010111101100'
p3197
I0
sS'000001011010'
p3198
I0
sS'000001011011'
p3199
I1
sS'001110010000'
p3200
I0
sS'001110010001'
p3201
I1
sS'011001110100'
p3202
I0
sS'001110001010'
p3203
I1
sS'000110101011'
p3204
I0
sS'000110101010'
p3205
I1
sS'111110001101'
p3206
I0
sS'111110001100'
p3207
I0
sS'111000000111'
p3208
I1
sS'111000000110'
p3209
I0
sS'011100111000'
p3210
I0
sS'011100111001'
p3211
I1
sS'011011000111'
p3212
I1
sS'001001111111'
p3213
I0
sS'001001111110'
p3214
I1
sS'101110100010'
p3215
I1
sS'101110100011'
p3216
I1
sS'101101001001'
p3217
I1
sS'101101001000'
p3218
I0
sS'001001100100'
p3219
I0
sS'001001100101'
p3220
I1
sS'000101100100'
p3221
I0
sS'000101100101'
p3222
I1
sS'101110111011'
p3223
I1
sS'001110100110'
p3224
I0
sS'001110100111'
p3225
I1
sS'111111011110'
p3226
I0
sS'111111011111'
p3227
I0
sS'101000110011'
p3228
I0
sS'101000110010'
p3229
I1
sS'110111000010'
p3230
I0
sS'110111000011'
p3231
I0
sS'100110110001'
p3232
I1
sS'100001000001'
p3233
I1
sS'010001101110'
p3234
I0
sS'010001101111'
p3235
I1
sS'100100010010'
p3236
I1
sS'100100010011'
p3237
I0
sS'001001000000'
p3238
I0
sS'001001000001'
p3239
I1
sS'101001010011'
p3240
I0
sS'101001010010'
p3241
I0
sS'000010100011'
p3242
I0
sS'000010100010'
p3243
I0
sS'011101010111'
p3244
I0
sS'000010101010'
p3245
I0
sS'100000100100'
p3246
I0
sS'000111111111'
p3247
I1
sS'100010011110'
p3248
I0
sS'100010011111'
p3249
I1
sS'000000000101'
p3250
I0
sS'000000000100'
p3251
I1
sS'100101111001'
p3252
I0
sS'001010000110'
p3253
I0
sS'001010000111'
p3254
I1
sS'110010110010'
p3255
I0
sS'110010110011'
p3256
I1
sS'111010110101'
p3257
I1
sS'111010110100'
p3258
I0
sS'101011100111'
p3259
I1
sS'101011100110'
p3260
I0
sS'101111101001'
p3261
I1
sS'101111101000'
p3262
I0
sS'101101010100'
p3263
I0
sS'101101010101'
p3264
I1
sS'000110010010'
p3265
I1
sS'000110010011'
p3266
I0
sS'001111011110'
p3267
I0
sS'000100101111'
p3268
I0
sS'100100011010'
p3269
I0
sS'111000011111'
p3270
I1
sS'100010101110'
p3271
I0
sS'111100101101'
p3272
I0
sS'111100101100'
p3273
I0
sS'010001101011'
p3274
I0
sS'110010100110'
p3275
I0
sS'110010100111'
p3276
I1
sS'011100110111'
p3277
I0
sS'101010011110'
p3278
I0
sS'010011010011'
p3279
I0
sS'010011010010'
p3280
I0
sS'001111011111'
p3281
I1
sS'000101111111'
p3282
I0
sS'000101111110'
p3283
I1
sS'100111011011'
p3284
I0
sS'110111011010'
p3285
I0
sS'110111011011'
p3286
I1
sS'110110011110'
p3287
I0
sS'110110011111'
p3288
I1
sS'011001011111'
p3289
I0
sS'011001011110'
p3290
I0
sS'111000101001'
p3291
I1
sS'111000101000'
p3292
I0
sS'100000111000'
p3293
I1
sS'100000111001'
p3294
I0
sS'111011011101'
p3295
I0
sS'011010011010'
p3296
I1
sS'011010011011'
p3297
I0
sS'100011011111'
p3298
I0
sS'100011011110'
p3299
I0
sS'010111010111'
p3300
I1
sS'101011011000'
p3301
I0
sS'001101001110'
p3302
I1
sS'111001110100'
p3303
I0
sS'100001101110'
p3304
I0
sS'100001101111'
p3305
I0
sS'101011011001'
p3306
I1
sS'101111110100'
p3307
I0
sS'101111110101'
p3308
I1
sS'010001000101'
p3309
I0
sS'010001000100'
p3310
I1
sS'000011000101'
p3311
I0
sS'000011000100'
p3312
I0
sS'010100100111'
p3313
I0
sS'010100100110'
p3314
I0
sS'011111110001'
p3315
I0
sS'011111110000'
p3316
I1
sS'100111000000'
p3317
I0
sS'100111000001'
p3318
I1
sS'110100110010'
p3319
I1
sS'110100110011'
p3320
I0
sS'001100110110'
p3321
I0
sS'001010100001'
p3322
I0
sS'001010100000'
p3323
I0
sS'001100110111'
p3324
I1
sS'111101100110'
p3325
I0
sS'111101100111'
p3326
I1
sS'110011111101'
p3327
I0
sS'100101011001'
p3328
I0
sS'100101011000'
p3329
I1
sS'111001000011'
p3330
I0
sS'111001000010'
p3331
I0
sS'001010011101'
p3332
I1
sS'001010011100'
p3333
I0
sS'101111111110'
p3334
I0
sS'111111100111'
p3335
I1
sS'010100000011'
p3336
I0
sS'010100000010'
p3337
I0
sS'110011101101'
p3338
I0
sS'001001011011'
p3339
I0
sS'011001101001'
p3340
I1
sS'011001101000'
p3341
I0
sS'010100001010'
p3342
I0
sS'010100001011'
p3343
I1
sS'000000101110'
p3344
I0
sS'000000101111'
p3345
I1
sS'011001111000'
p3346
I0
sS'000010010000'
p3347
I1
sS'000010010001'
p3348
I0
sS'101111111111'
p3349
I1
sS'011001111001'
p3350
I1
sS'011001111010'
p3351
I1
sS'111100111111'
p3352
I0
sS'111000110100'
p3353
I1
sS'001001011010'
p3354
I1
sS'111100111110'
p3355
I1
sS'011110010100'
p3356
I0
sS'101010111011'
p3357
I0
sS'011000001111'
p3358
I0
sS'011000001110'
p3359
I0
sS'000000011000'
p3360
I1
sS'000000011001'
p3361
I0
sS'011011011001'
p3362
I1
sS'011011111111'
p3363
I0
sS'101010101111'
p3364
I0
sS'000011011000'
p3365
I0
sS'000011011001'
p3366
I1
sS'011100011111'
p3367
I0
sS'011100011110'
p3368
I1
sS'010001011000'
p3369
I1
sS'010001011001'
p3370
I0
sS'101000010111'
p3371
I0
sS'101000010110'
p3372
I1
sS'111011110010'
p3373
I0
sS'111011110011'
p3374
I0
sS'001011101010'
p3375
I0
sS'001111011001'
p3376
I0
sS'011011011101'
p3377
I0
sS'101010101110'
p3378
I0
sS'000111101100'
p3379
I0
sS'011011011100'
p3380
I0
sS'100101000100'
p3381
I1
sS'100101000101'
p3382
I0
sS'111010101011'
p3383
I1
sS'111010101010'
p3384
I0
sS'000111110111'
p3385
I0
sS'000111110110'
p3386
I1
sS'110101000101'
p3387
I0
sS'110101000100'
p3388
I0
sS'001010011111'
p3389
I1
sS'111101010011'
p3390
I0
sS'111101010010'
p3391
I0
sS'011011101101'
p3392
I0
sS'011011101100'
p3393
I0
sS'001100001100'
p3394
I0
sS'001100001101'
p3395
I0
sS'110001001000'
p3396
I0
sS'110001001001'
p3397
I1
sS'111011110101'
p3398
I0
sS'011110100010'
p3399
I0
sS'001011110001'
p3400
I0
sS'001011110000'
p3401
I1
sS'000110100001'
p3402
I0
sS'000110100000'
p3403
I1
sS'110001101100'
p3404
I0
sS'110001101101'
p3405
I0
sS'011111010000'
p3406
I0
sS'011111010001'
p3407
I1
sS'101001101001'
p3408
I1
sS'101011111111'
p3409
I0
sS'011101000101'
p3410
I0
sS'011101000100'
p3411
I1
sS'101000111010'
p3412
I0
sS'101000111011'
p3413
I1
sS'001100010111'
p3414
I0
sS'001100010110'
p3415
I1
sS'110111100000'
p3416
I0
sS'110111100001'
p3417
I1
sS'000000110110'
p3418
I0
sS'010010110100'
p3419
I1
sS'100010101101'
p3420
I0
sS'110111111011'
p3421
I1
sS'110111111010'
p3422
I0
sS'100010101100'
p3423
I0
sS'110111110010'
p3424
I0
sS'110111110011'
p3425
I0
sS'010111010110'
p3426
I0
sS'010110101111'
p3427
I0
sS'111001001100'
p3428
I0
sS'010111001011'
p3429
I1
sS'111001110101'
p3430
I1
sS'001000111110'
p3431
I0
sS'001000111111'
p3432
I1
sS'001101001111'
p3433
I1
sS'100111101000'
p3434
I0
sS'100111101001'
p3435
I1
sS'110111101100'
p3436
I0
sS'101011111100'
p3437
I0
sS'011011100111'
p3438
I1
sS'000101001100'
p3439
I0
sS'000101001101'
p3440
I0
sS'111001101011'
p3441
I1
sS'111001101010'
p3442
I0
sS'001101010101'
p3443
I0
sS'001101010100'
p3444
I1
sS'101010111110'
p3445
I0
sS'101010111111'
p3446
I1
sS'111011101010'
p3447
I0
sS'011010111110'
p3448
I0
sS'011101011000'
p3449
I1
sS'011101011001'
p3450
I0
sS'101010111101'
p3451
I1
sS'011010100110'
p3452
I0
sS'000110110011'
p3453
I0
sS'000110110010'
p3454
I1
sS'011100100000'
p3455
I0
sS'011100100001'
p3456
I1
sS'100111110101'
p3457
I1
sS'100111110100'
p3458
I0
sS'000110111010'
p3459
I0
sS'000110111011'
p3460
I1
sS'000110001010'
p3461
I1
sS'000110001011'
p3462
I0
sS'110101010010'
p3463
I0
sS'010010111001'
p3464
I0
sS'010110000100'
p3465
I0
sS'010110000101'
p3466
I0
sS'101010111100'
p3467
I0
sS'000000111011'
p3468
I1
sS'000001011001'
p3469
I1
sS'000001011000'
p3470
I0
sS'001110010011'
p3471
I0
sS'001110010010'
p3472
I1
sS'110110100010'
p3473
I0
sS'110110100011'
p3474
I0
sS'011000111100'
p3475
I0
sS'110000110001'
p3476
I1
sS'000001000010'
p3477
I0
sS'010010101001'
p3478
I1
sS'100000000100'
p3479
I1
sS'100000000101'
p3480
I0
sS'111111000110'
p3481
I0
sS'011100111010'
p3482
I1
sS'010111100100'
p3483
I0
sS'010111100101'
p3484
I0
sS'011101011110'
p3485
I0
sS'101110100001'
p3486
I0
sS'101110100000'
p3487
I1
sS'011100110010'
p3488
I0
sS'011100110011'
p3489
I1
sS'010000100110'
p3490
I0
sS'010000100111'
p3491
I1
sS'010001110110'
p3492
I0
sS'010001110111'
p3493
I1
sS'110011110101'
p3494
I0
sS'000101100111'
p3495
I0
sS'000101100110'
p3496
I1
sS'001001100111'
p3497
I0
sS'001001100110'
p3498
I0
sS'110110110110'
p3499
I1
sS'110110110111'
p3500
I0
sS'011111000010'
p3501
I0
sS'111001111000'
p3502
I0
sS'110011110110'
p3503
I0
sS'110110000110'
p3504
I0
sS'110110000111'
p3505
I1
sS'100000100000'
p3506
I0
sS'100000100001'
p3507
I0
sS'110011110111'
p3508
I1
sS'111111011101'
p3509
I0
sS'100011110111'
p3510
I1
sS'010010111111'
p3511
I0
sS'000010110100'
p3512
I0
sS'110111000000'
p3513
I0
sS'001110100101'
p3514
I0
sS'001110100100'
p3515
I1
sS'101011101101'
p3516
I0
sS'010111000000'
p3517
I0
sS'010111000001'
p3518
I1
sS'100010000110'
p3519
I0
sS'100010000111'
p3520
I1
sS'010001101101'
p3521
I0
sS'010001101100'
p3522
I0
sS'001001000011'
p3523
I0
sS'001001000010'
p3524
I0
sS'100100010001'
p3525
I1
sS'100100010000'
p3526
I0
sS'111110001000'
p3527
I0
sS'111110001001'
p3528
I1
sS'110001101111'
p3529
I0
sS'101011001111'
p3530
I0
sS'001001001010'
p3531
I0
sS'001001001011'
p3532
I1
sS'001001101101'
p3533
I0
sS'100110100110'
p3534
I1
sS'100110100111'
p3535
I0
sS'010000010000'
p3536
I0
sS'101010100110'
p3537
I0
sS'101010100111'
p3538
I1
sS'000010101001'
p3539
I1
sS'000010101000'
p3540
I0
sS'111100101000'
p3541
I0
sS'111100101001'
p3542
I1
sS'100010011101'
p3543
I1
sS'100010011100'
p3544
I0
sS'111010000000'
p3545
I0
sS'111010000001'
p3546
I1
sS'001101111110'
p3547
I0
sS'001101111111'
p3548
I1
sS'001010000101'
p3549
I0
sS'001010000100'
p3550
I1
sS'011101100010'
p3551
I0
sS'011101100011'
p3552
I1
sS'110010110001'
p3553
I0
sS'110010110000'
p3554
I1
sS'010110011100'
p3555
I0
sS'010110011101'
p3556
I1
sS'100110111101'
p3557
I0
sS'100110111100'
p3558
I1
sS'000010001110'
p3559
I0
sS'101101010111'
p3560
I0
sS'101101010110'
p3561
I1
sS'000110010001'
p3562
I1
sS'000110010000'
p3563
I0
sS'110010100101'
p3564
I0
sS'110010100100'
p3565
I0
sS'001010111001'
p3566
I0
sS'000000000000'
p3567
I0
sS'000000000001'
p3568
I1
sS'101110111100'
p3569
I1
sS'110000111111'
p3570
I0
sS'101110111101'
p3571
I0
sS'110000111110'
p3572
I1
sS'111010110000'
p3573
I1
sS'111010110001'
p3574
I0
sS'110111011001'
p3575
I1
sS'110111011000'
p3576
I0
sS'110110011101'
p3577
I1
sS'110110011100'
p3578
I0
sS'100000111011'
p3579
I1
sS'100000111010'
p3580
I0
sS'110100001111'
p3581
I0
sS'110100101010'
p3582
I0
sS'110100101011'
p3583
I0
sS'001010011000'
p3584
I1
sS'001010011001'
p3585
I0
sS'001101001101'
p3586
I1
sS'001101001100'
p3587
I1
sS'100001101101'
p3588
I0
sS'100001101100'
p3589
I0
sS'101101111001'
p3590
I0
sS'101101111000'
p3591
I1
sS'101111110111'
p3592
I0
sS'101111110110'
p3593
I1
sS'010101011111'
p3594
I0
sS'011101110011'
p3595
I0
sS'110100110001'
p3596
I1
sS'110100110000'
p3597
I0
sS'101010000111'
p3598
I1
sS'100111000011'
p3599
I0
sS'100111000010'
p3600
I0
sS'011101111010'
p3601
I0
sS'011101111011'
p3602
I1
sS'001011011001'
p3603
I1
sS'111100010101'
p3604
I1
sS'111011000101'
p3605
I0
sS'001111111011'
p3606
I1
sS'010101110001'
p3607
I0
sS'111101100101'
p3608
I0
sS'111101100100'
p3609
I0
sS'111110111011'
p3610
I0
sS'000100000010'
p3611
I1
sS'000100000011'
p3612
I1
sS'001101011000'
p3613
I0
sS'000001110010'
p3614
I0
sS'000001110011'
p3615
I1
sS'111110111111'
p3616
I1
sS'111110000110'
p3617
I0
sS'101011110110'
p3618
I0
sS'101000111100'
p3619
I0
sS'101000111101'
p3620
I1
sS'110111101010'
p3621
I0
sS'110111101011'
p3622
I1
sS'000000101101'
p3623
I0
sS'000000101100'
p3624
I0
sS'010100001001'
p3625
I1
sS'010100001000'
p3626
I0
sS'000010010011'
p3627
I1
sS'000010010010'
p3628
I0
sS'111001110000'
p3629
I1
sS'111001110001'
p3630
I0
sS'010100010010'
p3631
I0
sS'010100010011'
p3632
I1
sS'010001000000'
p3633
I0
sS'010001000001'
p3634
I1
sS'000011000000'
p3635
I0
sS'000011000001'
p3636
I1
sS'111001100010'
p3637
I0
sS'111001100011'
p3638
I0
sS'001110110010'
p3639
I0
sS'001110110011'
p3640
I1
sS'101101101110'
p3641
I0
sS'001010100100'
p3642
I0
sS'001010100101'
p3643
I1
sS'101101111101'
p3644
I1
sS'001011100110'
p3645
I0
sS'001111010110'
p3646
I1
sS'000000011011'
p3647
I0
sS'000000011010'
p3648
I1
sS'100110101101'
p3649
I1
sS'100101011100'
p3650
I0
sS'100101011101'
p3651
I1
sS'110010011110'
p3652
I0
sS'010001011011'
p3653
I0
sS'010001011010'
p3654
I1
sS'000011011011'
p3655
I1
sS'000011011010'
p3656
I0
sS'000011010010'
p3657
I0
sS'000011010011'
p3658
I0
sS'101100111110'
p3659
I0
sS'101100111111'
p3660
I1
sS'110011101000'
p3661
I0
sS'110011101001'
p3662
I1
sS'011001101100'
p3663
I0
sS'011001101101'
p3664
I0
sS'001011101001'
p3665
I1
sS'001011101000'
p3666
I0
sS'001111000110'
p3667
I0
sS'001111000111'
p3668
I1
sS'000000110001'
p3669
I1
sS'000111101111'
p3670
I0
sS'000111101110'
p3671
I0
sS'100101000111'
p3672
I1
sS'100101000110'
p3673
I0
sS'111111101110'
p3674
I0
sS'111111101111'
p3675
I0
sS'101011010011'
p3676
I0
sS'001110111101'
p3677
I0
sS'001100001111'
p3678
I0
sS'001100001110'
p3679
I0
sS'110001001011'
p3680
I1
sS'110001001010'
p3681
I0
sS'011100101010'
p3682
I0
sS'110001101110'
p3683
I0
sS'111101110010'
p3684
I0
sS'111101110011'
p3685
I1
sS'101110111001'
p3686
I1
sS'101110111000'
p3687
I0
sS'011111010011'
p3688
I0
sS'011111010010'
p3689
I0
sS'110011011110'
p3690
I0
sS'011010100111'
p3691
I1
sS'011111011010'
p3692
I0
sS'011111011011'
p3693
I1
sS'101000111001'
p3694
I0
sS'010000111100'
p3695
I1
sS'001000100110'
p3696
I0
sS'001000100111'
p3697
I1
sS'110111100011'
p3698
I0
sS'110111100010'
p3699
I0
sS'011010000010'
p3700
I0
sS'011010000011'
p3701
I0
sS'000000110101'
p3702
I0
sS'000000110100'
p3703
I1
sS'001001011110'
p3704
I0
sS'111000110101'
p3705
I0
sS'111010001111'
p3706
I0
sS'001111110110'
p3707
I0
sS'111000111101'
p3708
I1
sS'110111110001'
p3709
I1
sS'110111110000'
p3710
I0
sS'001010101011'
p3711
I0
sS'101011101010'
p3712
I0
sS'111001111010'
p3713
I1
sS'001010101010'
p3714
I0
sS'011011101000'
p3715
I0
sS'011011101001'
p3716
I1
sS'100111110000'
p3717
I1
sS'001000111100'
p3718
I0
sS'101100101111'
p3719
I0
sS'011011001100'
p3720
I0
sS'011011001101'
p3721
I0
sS'001011110100'
p3722
I0
sS'101100101110'
p3723
I1
sS'000110100100'
p3724
I1
sS'000110100101'
p3725
I1
sS'000001111110'
p3726
I0
sS'111000111100'
p3727
I0
sS'100111100010'
p3728
I0
sS'000101001110'
p3729
I0
sS'011101000000'
p3730
I0
sS'011101000001'
p3731
I1
sS'111011101001'
p3732
I1
sS'111011101000'
p3733
I0
sS'011010010100'
p3734
I0
sS'011101011011'
p3735
I0
sS'011101011010'
p3736
I1
sS'010010110000'
p3737
I0
sS'010010110001'
p3738
I1
sS'011101010010'
p3739
I0
sS'011101010011'
p3740
I1
sS'010110110011'
p3741
I1
sS'011100100011'
p3742
I0
sS'011100100010'
p3743
I1
sS'001011010110'
p3744
I0
sS'000110111001'
p3745
I1
sS'000110111000'
p3746
I0
sS'010110000111'
p3747
I1
sS'010110000110'
p3748
I0
sS'001011010111'
p3749
I1
sS'110101010001'
p3750
I1
sS'110101010000'
p3751
I0
sS'000010011111'
p3752
I1
sS'011110000110'
p3753
I0
sS'011110000111'
p3754
I1
sS'011000111111'
p3755
I0
sS'011000111110'
p3756
I1
sS'000010011110'
p3757
I0
sS'000001000001'
p3758
I0
sS'010010101010'
p3759
I1
sS'110110100001'
p3760
I1
sS'110110100000'
p3761
I0
sS'100000000111'
p3762
I1
sS'100000000110'
p3763
I0
sS'011110101011'
p3764
I0
sS'011001111111'
p3765
I1
sS'111111000101'
p3766
I0
sS'111111000100'
p3767
I0
sS'101010101100'
p3768
I0
sS'011100110001'
p3769
I0
sS'011100110000'
p3770
I1
sS'010111100111'
p3771
I1
sS'010111100110'
p3772
I0
sS'010000100101'
p3773
I0
sS'010000100100'
p3774
I1
sS'010001110101'
p3775
I0
sS'010001110100'
p3776
I1
sS'011111000001'
p3777
I1
sS'011111000000'
p3778
I0
sS'110110110101'
p3779
I1
sS'110110110100'
p3780
I0
sS'001011101011'
p3781
I1
sS'101010101101'
p3782
I0
sS'100000100011'
p3783
I1
sS'100000100010'
p3784
I0
sS'101111000010'
p3785
I0
sS'101111000011'
p3786
I0
sS'100000101010'
p3787
I0
sS'100000101011'
p3788
I0
sS'000100111101'
p3789
I0
sS'000010110110'
p3790
I1
sS'010111000011'
p3791
I0
sS'010111000010'
p3792
I0
sS'011011111110'
p3793
I0
sS'100010000101'
p3794
I0
sS'100010000100'
p3795
I0
sS'111100110000'
p3796
I0
sS'111100110001'
p3797
I1
sS'111011000111'
p3798
I1
sS'111110010000'
p3799
I1
sS'111110010001'
p3800
I0
sS'001111111111'
p3801
I0
sS'011110010010'
p3802
I0
sS'111011000110'
p3803
I0
sS'001001001001'
p3804
I1
sS'001001001000'
p3805
I0
sS'011110010011'
p3806
I1
sS'111110001010'
p3807
I0
sS'010111111110'
p3808
I0
sS'111110000010'
p3809
I0
sS'111110000011'
p3810
I0
sS'101110100100'
p3811
I1
sS'101010100100'
p3812
I0
sS'100110100101'
p3813
I1
sS'100110100100'
p3814
I1
sS'101101001111'
p3815
I0
sS'101101001110'
p3816
I0
sS'000110001001'
p3817
I0
sS'000110001000'
p3818
I1
sS'111010000011'
p3819
I0
sS'111010000010'
p3820
I0
sS'111100101011'
p3821
I0
sS'111100101010'
p3822
I0
sS'000100011010'
p3823
I0
sS'000100011011'
p3824
I1
sS'100100100010'
p3825
I1
sS'100100100011'
p3826
I0
sS'101110011101'
p3827
I0
sS'001101111101'
p3828
I0
sS'001101111100'
p3829
I1
sS'011101100001'
p3830
I0
sS'011101100000'
p3831
I1
sS'111010001010'
p3832
I0
sS'111010001011'
p3833
I1
sS'111111011000'
p3834
I0
sS'110110101110'
p3835
I0
sS'000001101010'
p3836
I0
sS'000001101011'
p3837
I1
sS'110111000100'
p3838
I0
sS'110111000101'
p3839
I0
sS'110001111111'
p3840
I1
sS'010110011111'
p3841
I1
sS'010110011110'
p3842
I0
sS'000010011010'
p3843
I1
sS'000010011011'
p3844
I0
sS'001001111011'
p3845
I1
sS'010001101000'
p3846
I0
sS'010001101001'
p3847
I1
sS'111001111011'
p3848
I0
sS'100100010100'
p3849
I1
sS'100100010101'
p3850
I0
sS'001011001110'
p3851
I0
sS'001011001111'
p3852
I0
sS'110110000101'
p3853
I0
sS'110110000100'
p3854
I0
sS'101111111011'
p3855
I0
sS'101010001110'
p3856
I0
sS'101010001111'
p3857
I0
sS'101101100100'
p3858
I0
sS'101101100101'
p3859
I1
sS'100010011000'
p3860
I1
sS'100010011001'
p3861
I0
sS'000000000011'
p3862
I0
sS'000000000010'
p3863
I0
sS'001010000000'
p3864
I0
sS'001010000001'
p3865
I1
sS'101110001111'
p3866
I1
sS'110010110100'
p3867
I0
sS'110010110101'
p3868
I1
sS'111010110011'
p3869
I1
sS'111010110010'
p3870
I0
sS'100110111000'
p3871
I0
sS'100110111001'
p3872
I1
sS'001010010010'
p3873
I0
sS'001010010011'
p3874
I1
sS'000110010100'
p3875
I1
sS'000110010101'
p3876
I0
sS'110100101001'
p3877
I1
sS'110100101000'
p3878
I0
sS'010000001110'
p3879
I1
sS'010000001111'
p3880
I1
sS'111111110110'
p3881
I0
sS'111110000111'
p3882
I1
sS'101000001011'
p3883
I1
sS'100101111110'
p3884
I1
sS'100101111111'
p3885
I0
sS'000111101101'
p3886
I0
sS'101011000110'
p3887
I0
sS'001101100100'
p3888
I1
sS'100011111110'
p3889
I0
sS'100011111111'
p3890
I0
sS'111011010110'
p3891
I0
sS'001000001110'
p3892
I0
sS'001000001111'
p3893
I0
sS'001000110111'
p3894
I0
sS'011101111001'
p3895
I0
sS'011101111000'
p3896
I1
sS'111111010111'
p3897
I1
sS'000100000001'
p3898
I0
sS'000100000000'
p3899
I1
sS'110111011100'
p3900
I0
sS'111111010110'
p3901
I0
sS'100001101011'
p3902
I1
sS'110110011000'
p3903
I1
sS'110110011001'
p3904
I0
sS'111010111001'
p3905
I0
sS'100111110111'
p3906
I0
sS'000001110001'
p3907
I0
sS'000001110000'
p3908
I1
sS'001000110110'
p3909
I1
sS'110111101001'
p3910
I1
sS'110111101000'
p3911
I0
sS'001101001000'
p3912
I1
sS'001101001001'
p3913
I0
sS'010100010001'
p3914
I0
sS'010100010000'
p3915
I1
sS'100110010110'
p3916
I0
sS'100110010111'
p3917
I1
sS'000011000011'
p3918
I0
sS'000011000010'
p3919
I0
sS'110110111011'
p3920
I0
sS'010001000011'
p3921
I0
sS'010001000010'
p3922
I0
sS'101100100110'
p3923
I0
sS'101100100111'
p3924
I1
sS'111001100001'
p3925
I1
sS'111001100000'
p3926
I0
sS'110100110100'
p3927
I1
sS'110100110101'
p3928
I0
sS'110101100010'
p3929
I0
sS'001110110000'
p3930
I1
sS'001010100111'
p3931
I0
sS'001010100110'
p3932
I0
sS'110011110000'
p3933
I0
sS'110011110001'
p3934
I1
sS'101111111001'
p3935
I0
sS'100111000110'
p3936
I0
sS'100101011111'
p3937
I1
sS'100111000111'
p3938
I1
sS'001010011011'
p3939
I0
sS'001010011010'
p3940
I1
sS'101111100011'
p3941
I0
sS'001111001010'
p3942
I0
sS'111010011111'
p3943
I1
sS'001111001011'
p3944
I1
sS'101100111101'
p3945
I0
sS'101100111100'
p3946
I1
sS'011101001010'
p3947
I0
sS'011101001011'
p3948
I1
sS'011001101111'
p3949
I0
sS'011001101110'
p3950
I0
sS'000011010001'
p3951
I1
sS'000011010000'
p3952
I0
sS'001111000101'
p3953
I0
sS'001111000100'
p3954
I1
sS'100001011110'
p3955
I0
sS'110011101010'
p3956
I0
sS'000000101000'
p3957
I0
sS'000000101001'
p3958
I1
sS'110101010101'
p3959
I0
sS'101111100010'
p3960
I0
sS'011010111001'
p3961
I0
sS'111111101101'
p3962
I0
sS'111111101100'
p3963
I0
sS'100011100110'
p3964
I0
sS'100011100111'
p3965
I1
sS'100010110110'
p3966
I1
sS'100010110111'
p3967
I0
sS'001100111110'
p3968
I1
sS'011100101001'
p3969
I0
sS'011100101000'
p3970
I1
sS'111101110001'
p3971
I0
sS'111101110000'
p3972
I1
sS'110011011101'
p3973
I0
sS'110011011100'
p3974
I0
sS'011111011001'
p3975
I1
sS'011111011000'
p3976
I0
sS'001000100101'
p3977
I0
sS'001000100100'
p3978
I0
sS'110100011010'
p3979
I1
sS'110100011011'
p3980
I0
sS'011000000011'
p3981
I0
sS'101000101110'
p3982
I0
sS'101000101111'
p3983
I1
sS'011010000001'
p3984
I1
sS'011010000000'
p3985
I0
sS'010111001010'
p3986
I0
sS'011000000010'
p3987
I0
sS'100001111101'
p3988
I0
sS'001001011101'
p3989
I1
sS'001001011100'
p3990
I0
sS'110010011010'
p3991
I1
sS'110010011011'
p3992
I0
sS'100111111010'
p3993
I1
sS'100111111011'
p3994
I0
sS'111110101100'
p3995
I0
sS'111110010010'
p3996
I0
sS'001111110101'
p3997
I0
sS'001111110100'
p3998
I1
sS'111001111001'
p3999
I1
sS'011110011000'
p4000
I1
sS'100101100111'
p4001
I0
sS'110110100101'
p4002
I0
sS'011011101011'
p4003
I1
sS'011011101010'
p4004
I0
sS'011011001111'
p4005
I0
sS'011011001110'
p4006
I0
sS'101001000010'
p4007
I0
sS'101001000011'
p4008
I0
sS'001011110111'
p4009
I0
sS'001011110110'
p4010
I1
sS'111100011010'
p4011
I1
sS'111110011010'
p4012
I1
sS'111110011011'
p4013
I0
sS'000110100111'
p4014
I0
sS'000110100110'
p4015
I1
sS'100111100001'
p4016
I1
sS'100111100000'
p4017
I0
sS'011101000011'
p4018
I0
sS'011101000010'
p4019
I0
sS'010000111000'
p4020
I0
sS'010000111001'
p4021
I1
sS'100001000110'
p4022
I0
sS'100001000111'
p4023
I1
sS'111001010011'
p4024
I0
sS'000000110000'
p4025
I0
sS'010010110010'
p4026
I1
sS'011101010001'
p4027
I0
sS'011101010000'
p4028
I1
sS'111010010010'
p4029
I0
sS'111010010011'
p4030
I1
sS'110111111110'
p4031
I0
sS'110111110100'
p4032
I0
sS'110111110101'
p4033
I0
sS'011111001011'
p4034
I1
sS'011111000100'
p4035
I0
sS'011111000101'
p4036
I0
sS'111011011010'
p4037
I0
sS'111011011011'
p4038
I1
sS'011110000101'
p4039
I0
sS'011110000100'
p4040
I1
sS'001000111000'
p4041
I0
sS'001000111001'
p4042
I1
sS'101101110110'
p4043
I0
sS'010111111111'
p4044
I0
sS'011111001010'
p4045
I0
sS'110010011101'
p4046
I1
sS'000010001001'
p4047
I1
sS'111110111101'
p4048
I1
sS'101010111000'
p4049
I1
sS'101010111001'
p4050
I0
sS'010111010100'
p4051
I0
sS'111011101100'
p4052
I0
sS'111011101101'
p4053
I0
sS'101101110111'
p4054
I1
sS'010001011110'
p4055
I0
sS'010000111110'
p4056
I0
sS'000011110110'
p4057
I0
sS'000011110111'
p4058
I1
sS'010101011110'
p4059
I0
sS'010111011010'
p4060
I0
sS'100111110011'
p4061
I1
sS'100111110010'
p4062
I0
sS'111111100011'
p4063
I0
sS'000110001100'
p4064
I1
sS'000110001101'
p4065
I1
sS'101111000001'
p4066
I1
sS'101111000000'
p4067
I0
sS'100000101001'
p4068
I1
sS'100000101000'
p4069
I0
sS'010001011111'
p4070
I1
sS'010000010110'
p4071
I0
sS'010000010111'
p4072
I1
sS'111100110011'
p4073
I0
sS'111100110010'
p4074
I1
sS'101010101010'
p4075
I0
sS'100000110010'
p4076
I1
sS'100000110011'
p4077
I0
sS'000001000100'
p4078
I0
sS'000001000101'
p4079
I1
sS'110110100100'
p4080
I0
sS'000000110111'
p4081
I1
sS'110000011110'
p4082
I0
sS'110000011111'
p4083
I1
sS'010100110000'
p4084
I0
sS'010100110001'
p4085
I1
sS'111111000000'
p4086
I0
sS'111111000001'
p4087
I1
sS'011100110100'
p4088
I0
sS'011100110101'
p4089
I1
sS'111110000001'
p4090
I1
sS'111110000000'
p4091
I0
sS'101110100111'
p4092
I0
sS'101110100110'
p4093
I1
sS'010000100000'
p4094
I0
sS'010000100001'
p4095
I1
sS'010001110000'
p4096
I0
sS'010001110001'
p4097
I1
s.